---
triple:          'x86_64-apple-darwin'
binary-path:     '/Users/jaredchristopher/Desktop/_TENTECH/KDD19-AnomRank/main'
relocations:
  - { offsetInCU: 0x5D18, offset: 0x5D18, size: 0x8, addend: 0x0, symName: '__ZNSt3__111__introsortINS_17_ClassicAlgPolicyERZ16compute_accuracyPdPbiiE3$_0PmLb0EEEvT1_S7_T0_NS_15iterator_traitsIS7_E15difference_typeEb', symObjAddr: 0x5F10, symBinAddr: 0x100006F10, symSize: 0x450 }
  - { offsetInCU: 0x5E46, offset: 0x5E46, size: 0x8, addend: 0x0, symName: '__ZNSt3__126__insertion_sort_unguardedB8ue170006INS_17_ClassicAlgPolicyERZ16compute_accuracyPdPbiiE3$_0PmEEvT1_S7_T0_', symObjAddr: 0x65F0, symBinAddr: 0x1000075F0, symSize: 0x110 }
  - { offsetInCU: 0x5F36, offset: 0x5F36, size: 0x8, addend: 0x0, symName: '__ZNSt3__111__sift_downB8ue170006INS_17_ClassicAlgPolicyERZ16compute_accuracyPdPbiiE3$_0PmEEvT1_OT0_NS_15iterator_traitsIS7_E15difference_typeES7_', symObjAddr: 0x76B0, symBinAddr: 0x1000086B0, symSize: 0x1F0 }
  - { offsetInCU: 0x5FE3, offset: 0x5FE3, size: 0x8, addend: 0x0, symName: '__ZNSt3__117__floyd_sift_downB8ue170006INS_17_ClassicAlgPolicyERZ16compute_accuracyPdPbiiE3$_0PmEET1_S7_OT0_NS_15iterator_traitsIS7_E15difference_typeE', symObjAddr: 0x7A00, symBinAddr: 0x100008A00, symSize: 0x100 }
  - { offsetInCU: 0x607B, offset: 0x607B, size: 0x8, addend: 0x0, symName: '__ZNSt3__131__partition_with_equals_on_leftB8ue170006INS_17_ClassicAlgPolicyEPmRZ16compute_accuracyPdPbiiE3$_0EET0_S7_S7_T1_', symObjAddr: 0x6920, symBinAddr: 0x100007920, symSize: 0x1E0 }
  - { offsetInCU: 0x6136, offset: 0x6136, size: 0x8, addend: 0x0, symName: '__ZNSt3__118__bitset_partitionB8ue170006INS_17_ClassicAlgPolicyEPmRZ16compute_accuracyPdPbiiE3$_0EENS_4pairIT0_bEES8_S8_T1_', symObjAddr: 0x6B00, symBinAddr: 0x100007B00, symSize: 0x2C0 }
  - { offsetInCU: 0x6232, offset: 0x6232, size: 0x8, addend: 0x0, symName: __ZNSt3__124__swap_bitmap_pos_withinB8ue170006INS_17_ClassicAlgPolicyEPmEEvRT0_S4_RyS5_, symObjAddr: 0x8090, symBinAddr: 0x100009090, symSize: 0x190 }
  - { offsetInCU: 0x62FF, offset: 0x62FF, size: 0x8, addend: 0x0, symName: '__ZNSt3__132__partition_with_equals_on_rightB8ue170006INS_17_ClassicAlgPolicyEPmRZ16compute_accuracyPdPbiiE3$_0EENS_4pairIT0_bEES8_S8_T1_', symObjAddr: 0x6DC0, symBinAddr: 0x100007DC0, symSize: 0x1E0 }
  - { offsetInCU: 0x63CB, offset: 0x63CB, size: 0x8, addend: 0x0, symName: '__ZNSt3__127__insertion_sort_incompleteB8ue170006INS_17_ClassicAlgPolicyERZ16compute_accuracyPdPbiiE3$_0PmEEbT1_S7_T0_', symObjAddr: 0x6FA0, symBinAddr: 0x100007FA0, symSize: 0x2A0 }
  - { offsetInCU: 0x64C1, offset: 0x64C1, size: 0x8, addend: 0x0, symName: __ZNSt3__124__put_character_sequenceB8ue170006IcNS_11char_traitsIcEEEERNS_13basic_ostreamIT_T0_EES7_PKS4_m, symObjAddr: 0x83E0, symBinAddr: 0x1000093E0, symSize: 0x1F0 }
  - { offsetInCU: 0x8F34, offset: 0x8F34, size: 0x8, addend: 0x0, symName: __ZNSt3__111__introsortINS_17_ClassicAlgPolicyER12compare_edgeP8timeEdgeLb0EEEvT1_S6_T0_NS_15iterator_traitsIS6_E15difference_typeEb, symObjAddr: 0xCED0, symBinAddr: 0x10000DED0, symSize: 0x440 }
  - { offsetInCU: 0x9062, offset: 0x9062, size: 0x8, addend: 0x0, symName: __ZNSt3__126__insertion_sort_unguardedB8ue170006INS_17_ClassicAlgPolicyER12compare_edgeP8timeEdgeEEvT1_S6_T0_, symObjAddr: 0xD580, symBinAddr: 0x10000E580, symSize: 0x120 }
  - { offsetInCU: 0x9153, offset: 0x9153, size: 0x8, addend: 0x0, symName: __ZNSt3__111__sift_downB8ue170006INS_17_ClassicAlgPolicyER12compare_edgeP8timeEdgeEEvT1_OT0_NS_15iterator_traitsIS6_E15difference_typeES6_, symObjAddr: 0xE650, symBinAddr: 0x10000F650, symSize: 0x200 }
  - { offsetInCU: 0x9200, offset: 0x9200, size: 0x8, addend: 0x0, symName: __ZNSt3__117__floyd_sift_downB8ue170006INS_17_ClassicAlgPolicyER12compare_edgeP8timeEdgeEET1_S6_OT0_NS_15iterator_traitsIS6_E15difference_typeE, symObjAddr: 0xE9E0, symBinAddr: 0x10000F9E0, symSize: 0x100 }
  - { offsetInCU: 0x9298, offset: 0x9298, size: 0x8, addend: 0x0, symName: __ZNSt3__131__partition_with_equals_on_leftB8ue170006INS_17_ClassicAlgPolicyEP8timeEdgeR12compare_edgeEET0_S6_S6_T1_, symObjAddr: 0xD8A0, symBinAddr: 0x10000E8A0, symSize: 0x1F0 }
  - { offsetInCU: 0x9353, offset: 0x9353, size: 0x8, addend: 0x0, symName: __ZNSt3__118__bitset_partitionB8ue170006INS_17_ClassicAlgPolicyEP8timeEdgeR12compare_edgeEENS_4pairIT0_bEES7_S7_T1_, symObjAddr: 0xDA90, symBinAddr: 0x10000EA90, symSize: 0x2D0 }
  - { offsetInCU: 0x9450, offset: 0x9450, size: 0x8, addend: 0x0, symName: __ZNSt3__124__swap_bitmap_pos_withinB8ue170006INS_17_ClassicAlgPolicyEP8timeEdgeEEvRT0_S5_RyS6_, symObjAddr: 0xF070, symBinAddr: 0x100010070, symSize: 0x190 }
  - { offsetInCU: 0x951D, offset: 0x951D, size: 0x8, addend: 0x0, symName: __ZNSt3__132__partition_with_equals_on_rightB8ue170006INS_17_ClassicAlgPolicyEP8timeEdgeR12compare_edgeEENS_4pairIT0_bEES7_S7_T1_, symObjAddr: 0xDD60, symBinAddr: 0x10000ED60, symSize: 0x1F0 }
  - { offsetInCU: 0x95EA, offset: 0x95EA, size: 0x8, addend: 0x0, symName: __ZNSt3__127__insertion_sort_incompleteB8ue170006INS_17_ClassicAlgPolicyER12compare_edgeP8timeEdgeEEbT1_S6_T0_, symObjAddr: 0xDF50, symBinAddr: 0x10000EF50, symSize: 0x2B0 }
  - { offsetInCU: 0xA5EE, offset: 0xA5EE, size: 0x8, addend: 0x0, symName: __ZNSt3__14iotaB8ue170006INS_11__wrap_iterIPmEEiEEvT_S4_T0_, symObjAddr: 0x370, symBinAddr: 0x100001370, symSize: 0x70 }
  - { offsetInCU: 0xA644, offset: 0xA644, size: 0x8, addend: 0x0, symName: '__ZNSt3__14sortB8ue170006INS_11__wrap_iterIPmEEZ16compute_accuracyPdPbiiE3$_0EEvT_S7_T0_', symObjAddr: 0x440, symBinAddr: 0x100001440, symSize: 0x40 }
  - { offsetInCU: 0xA69E, offset: 0xA69E, size: 0x8, addend: 0x0, symName: __ZNSt3__1lsB8ue170006INS_11char_traitsIcEEEERNS_13basic_ostreamIcT_EES6_PKc, symObjAddr: 0x4A0, symBinAddr: 0x1000014A0, symSize: 0x40 }
  - { offsetInCU: 0xA6E4, offset: 0xA6E4, size: 0x8, addend: 0x0, symName: __ZNSt3__14endlB8ue170006IcNS_11char_traitsIcEEEERNS_13basic_ostreamIT_T0_EES7_, symObjAddr: 0x500, symBinAddr: 0x100001500, symSize: 0x50 }
  - { offsetInCU: 0xA724, offset: 0xA724, size: 0x8, addend: 0x0, symName: __ZNSt3__13maxB8ue170006IdEERKT_S3_S3_, symObjAddr: 0x1000, symBinAddr: 0x100002000, symSize: 0x30 }
  - { offsetInCU: 0xA767, offset: 0xA767, size: 0x8, addend: 0x0, symName: __ZNSt3__1eqB8ue170006IPiEEbRKNS_11__wrap_iterIT_EES6_, symObjAddr: 0x1A30, symBinAddr: 0x100002A30, symSize: 0x40 }
  - { offsetInCU: 0xA7AA, offset: 0xA7AA, size: 0x8, addend: 0x0, symName: __ZNSt3__14findB8ue170006INS_11__wrap_iterIPiEEiEET_S4_S4_RKT0_, symObjAddr: 0x1A70, symBinAddr: 0x100002A70, symSize: 0x70 }
  - { offsetInCU: 0xA812, offset: 0xA812, size: 0x8, addend: 0x0, symName: __ZNSt3__1neB8ue170006IPiEEbRKNS_11__wrap_iterIT_EES6_, symObjAddr: 0x1B40, symBinAddr: 0x100002B40, symSize: 0x30 }
  - { offsetInCU: 0xA855, offset: 0xA855, size: 0x8, addend: 0x0, symName: __ZNSt3__14sortB8ue170006INS_11__wrap_iterIPiEEEEvT_S4_, symObjAddr: 0x1D00, symBinAddr: 0x100002D00, symSize: 0x40 }
  - { offsetInCU: 0xB63E, offset: 0xB63E, size: 0x8, addend: 0x0, symName: __ZNSt3__17getlineB8ue170006IcNS_11char_traitsIcEENS_9allocatorIcEEEERNS_13basic_istreamIT_T0_EES9_RNS_12basic_stringIS6_S7_T1_EE, symObjAddr: 0x2D10, symBinAddr: 0x100003D10, symSize: 0x50 }
  - { offsetInCU: 0xB696, offset: 0xB696, size: 0x8, addend: 0x0, symName: __ZNSt3__14sortB8ue170006INS_11__wrap_iterIP8timeEdgeEE12compare_edgeEEvT_S6_T0_, symObjAddr: 0x2FF0, symBinAddr: 0x100003FF0, symSize: 0x40 }
  - { offsetInCU: 0xB871, offset: 0xB871, size: 0x8, addend: 0x0, symName: __ZNSt3__13maxB8ue170006IdNS_6__lessIvvEEEERKT_S5_S5_T0_, symObjAddr: 0x46E0, symBinAddr: 0x1000056E0, symSize: 0x50 }
  - { offsetInCU: 0xB941, offset: 0xB941, size: 0x8, addend: 0x0, symName: __ZNSt3__112__to_addressB8ue170006IKcEEPT_S3_, symObjAddr: 0x4B90, symBinAddr: 0x100005B90, symSize: 0x10 }
  - { offsetInCU: 0xB9A9, offset: 0xB9A9, size: 0x8, addend: 0x0, symName: __ZNSt3__118__constexpr_strlenB8ue170006EPKc, symObjAddr: 0x4D30, symBinAddr: 0x100005D30, symSize: 0x20 }
  - { offsetInCU: 0xB9D5, offset: 0xB9D5, size: 0x8, addend: 0x0, symName: __ZNSt3__122__make_exception_guardB8ue170006INS_6vectorImNS_9allocatorImEEE16__destroy_vectorEEENS_28__exception_guard_exceptionsIT_EES7_, symObjAddr: 0x4E50, symBinAddr: 0x100005E50, symSize: 0x40 }
  - { offsetInCU: 0xBA0A, offset: 0xBA0A, size: 0x8, addend: 0x0, symName: __ZNSt3__119__allocate_at_leastB8ue170006INS_9allocatorImEEEENS_19__allocation_resultINS_16allocator_traitsIT_E7pointerEEERS5_m, symObjAddr: 0x5200, symBinAddr: 0x100006200, symSize: 0x40 }
  - { offsetInCU: 0xBA4D, offset: 0xBA4D, size: 0x8, addend: 0x0, symName: __ZNSt3__13minB8ue170006ImEERKT_S3_S3_, symObjAddr: 0x5330, symBinAddr: 0x100006330, symSize: 0x30 }
  - { offsetInCU: 0xBC91, offset: 0xBC91, size: 0x8, addend: 0x0, symName: __ZNSt3__13minB8ue170006ImNS_6__lessIvvEEEERKT_S5_S5_T0_, symObjAddr: 0x53B0, symBinAddr: 0x1000063B0, symSize: 0x50 }
  - { offsetInCU: 0xBCEB, offset: 0xBCEB, size: 0x8, addend: 0x0, symName: __ZNSt3__120__throw_length_errorB8ue170006EPKc, symObjAddr: 0x5490, symBinAddr: 0x100006490, symSize: 0x70 }
  - { offsetInCU: 0xBD15, offset: 0xBD15, size: 0x8, addend: 0x0, symName: __ZNSt3__117__libcpp_allocateB8ue170006Emm, symObjAddr: 0x5600, symBinAddr: 0x100006600, symSize: 0x20 }
  - { offsetInCU: 0xBD52, offset: 0xBD52, size: 0x8, addend: 0x0, symName: __ZNSt3__121__libcpp_operator_newB8ue170006IJmEEEPvDpT_, symObjAddr: 0x5620, symBinAddr: 0x100006620, symSize: 0x20 }
  - { offsetInCU: 0xBD8B, offset: 0xBD8B, size: 0x8, addend: 0x0, symName: __ZNSt3__112__to_addressB8ue170006ImEEPT_S2_, symObjAddr: 0x5710, symBinAddr: 0x100006710, symSize: 0x10 }
  - { offsetInCU: 0xBDC0, offset: 0xBDC0, size: 0x8, addend: 0x0, symName: __ZNSt3__119__libcpp_deallocateB8ue170006EPvmm, symObjAddr: 0x5B50, symBinAddr: 0x100006B50, symSize: 0x30 }
  - { offsetInCU: 0xBE08, offset: 0xBE08, size: 0x8, addend: 0x0, symName: __ZNSt3__127__do_deallocate_handle_sizeB8ue170006IJEEEvPvmDpT_, symObjAddr: 0x5B80, symBinAddr: 0x100006B80, symSize: 0x20 }
  - { offsetInCU: 0xBE46, offset: 0xBE46, size: 0x8, addend: 0x0, symName: __ZNSt3__124__libcpp_operator_deleteB8ue170006IJPvEEEvDpT_, symObjAddr: 0x5BA0, symBinAddr: 0x100006BA0, symSize: 0x20 }
  - { offsetInCU: 0xBE7B, offset: 0xBE7B, size: 0x8, addend: 0x0, symName: __ZNSt3__1neB8ue170006IPmEEbRKNS_11__wrap_iterIT_EES6_, symObjAddr: 0x5C80, symBinAddr: 0x100006C80, symSize: 0x30 }
  - { offsetInCU: 0xBEBE, offset: 0xBEBE, size: 0x8, addend: 0x0, symName: __ZNSt3__1eqB8ue170006IPmEEbRKNS_11__wrap_iterIT_EES6_, symObjAddr: 0x5CF0, symBinAddr: 0x100006CF0, symSize: 0x40 }
  - { offsetInCU: 0xBF01, offset: 0xBF01, size: 0x8, addend: 0x0, symName: '__ZNSt3__111__sort_implB8ue170006INS_17_ClassicAlgPolicyENS_11__wrap_iterIPmEEZ16compute_accuracyPdPbiiE3$_0EEvT0_S8_RT1_', symObjAddr: 0x5D50, symBinAddr: 0x100006D50, symSize: 0xB0 }
  - { offsetInCU: 0xBF64, offset: 0xBF64, size: 0x8, addend: 0x0, symName: __ZNSt3__123__debug_randomize_rangeB8ue170006INS_17_ClassicAlgPolicyENS_11__wrap_iterIPmEES4_EEvT0_T1_, symObjAddr: 0x5E00, symBinAddr: 0x100006E00, symSize: 0x10 }
  - { offsetInCU: 0xBFB5, offset: 0xBFB5, size: 0x8, addend: 0x0, symName: '__ZNSt3__115__sort_dispatchB8ue170006INS_17_ClassicAlgPolicyEPmZ16compute_accuracyPdPbiiE3$_0EEvT0_S6_RT1_', symObjAddr: 0x5E10, symBinAddr: 0x100006E10, symSize: 0x60 }
  - { offsetInCU: 0xC033, offset: 0xC033, size: 0x8, addend: 0x0, symName: __ZNSt3__113__unwrap_iterB8ue170006INS_11__wrap_iterIPmEENS_18__unwrap_iter_implIS3_Lb1EEELi0EEEDTclsrT0_8__unwrapclsr3stdE7declvalIT_EEEES7_, symObjAddr: 0x5E70, symBinAddr: 0x100006E70, symSize: 0x30 }
  - { offsetInCU: 0xC077, offset: 0xC077, size: 0x8, addend: 0x0, symName: '__ZNSt3__135__check_strict_weak_ordering_sortedB8ue170006IPmZ16compute_accuracyPdPbiiE3$_0EEvT_S5_RT0_', symObjAddr: 0x5EA0, symBinAddr: 0x100006EA0, symSize: 0x20 }
  - { offsetInCU: 0xC0CD, offset: 0xC0CD, size: 0x8, addend: 0x0, symName: __ZNSt3__17__log2iB8ue170006IlEET_S1_, symObjAddr: 0x5EC0, symBinAddr: 0x100006EC0, symSize: 0x50 }
  - { offsetInCU: 0xC104, offset: 0xC104, size: 0x8, addend: 0x0, symName: __ZNSt3__112__libcpp_clzB8ue170006Em, symObjAddr: 0x6360, symBinAddr: 0x100007360, symSize: 0x20 }
  - { offsetInCU: 0xC34E, offset: 0xC34E, size: 0x8, addend: 0x0, symName: '__ZNSt3__124__sort3_maybe_branchlessB8ue170006INS_17_ClassicAlgPolicyERZ16compute_accuracyPdPbiiE3$_0PmEENS_9enable_ifIXntsr21__use_branchless_sortIT0_T1_EE5valueEvE4typeES9_S9_S9_S8_', symObjAddr: 0x63F0, symBinAddr: 0x1000073F0, symSize: 0x40 }
  - { offsetInCU: 0xC3BF, offset: 0xC3BF, size: 0x8, addend: 0x0, symName: '__ZNSt3__124__sort4_maybe_branchlessB8ue170006INS_17_ClassicAlgPolicyERZ16compute_accuracyPdPbiiE3$_0PmEENS_9enable_ifIXntsr21__use_branchless_sortIT0_T1_EE5valueEvE4typeES9_S9_S9_S9_S8_', symObjAddr: 0x6430, symBinAddr: 0x100007430, symSize: 0x40 }
  - { offsetInCU: 0xC43E, offset: 0xC43E, size: 0x8, addend: 0x0, symName: '__ZNSt3__124__sort5_maybe_branchlessB8ue170006INS_17_ClassicAlgPolicyERZ16compute_accuracyPdPbiiE3$_0PmEENS_9enable_ifIXntsr21__use_branchless_sortIT0_T1_EE5valueEvE4typeES9_S9_S9_S9_S9_S8_', symObjAddr: 0x6470, symBinAddr: 0x100007470, symSize: 0x50 }
  - { offsetInCU: 0xC4CB, offset: 0xC4CB, size: 0x8, addend: 0x0, symName: '__ZNSt3__116__insertion_sortB8ue170006INS_17_ClassicAlgPolicyERZ16compute_accuracyPdPbiiE3$_0PmEEvT1_S7_T0_', symObjAddr: 0x64C0, symBinAddr: 0x1000074C0, symSize: 0x130 }
  - { offsetInCU: 0xC58E, offset: 0xC58E, size: 0x8, addend: 0x0, symName: '__ZNSt3__114__partial_sortB8ue170006INS_17_ClassicAlgPolicyERZ16compute_accuracyPdPbiiE3$_0PmS6_EET1_S7_S7_T2_RT0_', symObjAddr: 0x6700, symBinAddr: 0x100007700, symSize: 0x90 }
  - { offsetInCU: 0xC616, offset: 0xC616, size: 0x8, addend: 0x0, symName: '__ZNSt3__17__sort3B8ue170006INS_17_ClassicAlgPolicyERZ16compute_accuracyPdPbiiE3$_0PmEEjT1_S7_S7_T0_', symObjAddr: 0x6790, symBinAddr: 0x100007790, symSize: 0x160 }
  - { offsetInCU: 0xC695, offset: 0xC695, size: 0x8, addend: 0x0, symName: __ZNSt3__19iter_swapB8ue170006IPmS1_EEvT_T0_, symObjAddr: 0x7240, symBinAddr: 0x100008240, symSize: 0x30 }
  - { offsetInCU: 0xC6DD, offset: 0xC6DD, size: 0x8, addend: 0x0, symName: __ZNSt3__14swapB8ue170006ImEENS_9enable_ifIXaasr21is_move_constructibleIT_EE5valuesr18is_move_assignableIS2_EE5valueEvE4typeERS2_S5_, symObjAddr: 0x7270, symBinAddr: 0x100008270, symSize: 0x40 }
  - { offsetInCU: 0xC72E, offset: 0xC72E, size: 0x8, addend: 0x0, symName: '__ZNSt3__17__sort4B8ue170006INS_17_ClassicAlgPolicyERZ16compute_accuracyPdPbiiE3$_0PmEEvT1_S7_S7_S7_T0_', symObjAddr: 0x72B0, symBinAddr: 0x1000082B0, symSize: 0xE0 }
  - { offsetInCU: 0xC7A9, offset: 0xC7A9, size: 0x8, addend: 0x0, symName: '__ZNSt3__17__sort5B8ue170006INS_17_ClassicAlgPolicyERZ16compute_accuracyPdPbiiE3$_0PmEEvT1_S7_S7_S7_S7_T0_', symObjAddr: 0x7390, symBinAddr: 0x100008390, symSize: 0x120 }
  - { offsetInCU: 0xC856, offset: 0xC856, size: 0x8, addend: 0x0, symName: __ZNSt3__123__debug_randomize_rangeB8ue170006INS_17_ClassicAlgPolicyEPmS2_EEvT0_T1_, symObjAddr: 0x7500, symBinAddr: 0x100008500, symSize: 0x10 }
  - { offsetInCU: 0xC8A7, offset: 0xC8A7, size: 0x8, addend: 0x0, symName: '__ZNSt3__119__partial_sort_implB8ue170006INS_17_ClassicAlgPolicyERZ16compute_accuracyPdPbiiE3$_0PmS6_EET1_S7_S7_T2_OT0_', symObjAddr: 0x7510, symBinAddr: 0x100008510, symSize: 0x100 }
  - { offsetInCU: 0xC93D, offset: 0xC93D, size: 0x8, addend: 0x0, symName: '__ZNSt3__111__make_heapB8ue170006INS_17_ClassicAlgPolicyERZ16compute_accuracyPdPbiiE3$_0PmEEvT1_S7_OT0_', symObjAddr: 0x7610, symBinAddr: 0x100008610, symSize: 0xA0 }
  - { offsetInCU: 0xC9DF, offset: 0xC9DF, size: 0x8, addend: 0x0, symName: '__ZNSt3__111__sort_heapB8ue170006INS_17_ClassicAlgPolicyERZ16compute_accuracyPdPbiiE3$_0PmEEvT1_S7_OT0_', symObjAddr: 0x78A0, symBinAddr: 0x1000088A0, symSize: 0x90 }
  - { offsetInCU: 0xCA81, offset: 0xCA81, size: 0x8, addend: 0x0, symName: '__ZNSt3__110__pop_heapB8ue170006INS_17_ClassicAlgPolicyEZ16compute_accuracyPdPbiiE3$_0PmEEvT1_S6_RT0_NS_15iterator_traitsIS6_E15difference_typeE', symObjAddr: 0x7930, symBinAddr: 0x100008930, symSize: 0xD0 }
  - { offsetInCU: 0xCB31, offset: 0xCB31, size: 0x8, addend: 0x0, symName: '__ZNSt3__19__sift_upB8ue170006INS_17_ClassicAlgPolicyERZ16compute_accuracyPdPbiiE3$_0PmEEvT1_S7_OT0_NS_15iterator_traitsIS7_E15difference_typeE', symObjAddr: 0x7B00, symBinAddr: 0x100008B00, symSize: 0x120 }
  - { offsetInCU: 0xCBE1, offset: 0xCBE1, size: 0x8, addend: 0x0, symName: '__ZNSt3__122__populate_left_bitsetB8ue170006IRZ16compute_accuracyPdPbiiE3$_0PmmEEvT0_T_RT1_Ry', symObjAddr: 0x7C20, symBinAddr: 0x100008C20, symSize: 0x90 }
  - { offsetInCU: 0xCC9C, offset: 0xCC9C, size: 0x8, addend: 0x0, symName: '__ZNSt3__123__populate_right_bitsetB8ue170006IRZ16compute_accuracyPdPbiiE3$_0PmmEEvT0_T_RT1_Ry', symObjAddr: 0x7CB0, symBinAddr: 0x100008CB0, symSize: 0x90 }
  - { offsetInCU: 0xCD57, offset: 0xCD57, size: 0x8, addend: 0x0, symName: __ZNSt3__117__swap_bitmap_posB8ue170006INS_17_ClassicAlgPolicyEPmEEvT0_S3_RyS4_, symObjAddr: 0x7D40, symBinAddr: 0x100008D40, symSize: 0xE0 }
  - { offsetInCU: 0xCDF8, offset: 0xCDF8, size: 0x8, addend: 0x0, symName: '__ZNSt3__133__bitset_partition_partial_blocksB8ue170006INS_17_ClassicAlgPolicyERZ16compute_accuracyPdPbiiE3$_0PmmEEvRT1_S8_T0_RT2_RySC_', symObjAddr: 0x7E20, symBinAddr: 0x100008E20, symSize: 0x270 }
  - { offsetInCU: 0xCF7F, offset: 0xCF7F, size: 0x8, addend: 0x0, symName: __ZNSt3__19make_pairB8ue170006IRPmRbEENS_4pairINS_18__unwrap_ref_decayIT_E4typeENS5_IT0_E4typeEEEOS6_OS9_, symObjAddr: 0x8220, symBinAddr: 0x100009220, symSize: 0x30 }
  - { offsetInCU: 0xCFCE, offset: 0xCFCE, size: 0x8, addend: 0x0, symName: __ZNSt3__112__libcpp_ctzB8ue170006Ey, symObjAddr: 0x8250, symBinAddr: 0x100009250, symSize: 0x20 }
  - { offsetInCU: 0xCFFA, offset: 0xCFFA, size: 0x8, addend: 0x0, symName: __ZNSt3__113__libcpp_blsrB8ue170006Ey, symObjAddr: 0x8270, symBinAddr: 0x100009270, symSize: 0x20 }
  - { offsetInCU: 0xD026, offset: 0xD026, size: 0x8, addend: 0x0, symName: __ZNSt3__112__libcpp_clzB8ue170006Ey, symObjAddr: 0x82C0, symBinAddr: 0x1000092C0, symSize: 0x20 }
  - { offsetInCU: 0xD179, offset: 0xD179, size: 0x8, addend: 0x0, symName: __ZNSt3__112__to_addressB8ue170006INS_11__wrap_iterIPmEEvEEu7__decayIDTclsr19__to_address_helperIT_EE6__callclsr3stdE7declvalIRKS4_EEEEES6_, symObjAddr: 0x8360, symBinAddr: 0x100009360, symSize: 0x20 }
  - { offsetInCU: 0xD254, offset: 0xD254, size: 0x8, addend: 0x0, symName: __ZNSt3__116__pad_and_outputB8ue170006IcNS_11char_traitsIcEEEENS_19ostreambuf_iteratorIT_T0_EES6_PKS4_S8_S8_RNS_8ios_baseES4_, symObjAddr: 0x85F0, symBinAddr: 0x1000095F0, symSize: 0x220 }
  - { offsetInCU: 0xD324, offset: 0xD324, size: 0x8, addend: 0x0, symName: __ZNSt3__19use_facetB8ue170006INS_5ctypeIcEEEERKT_RKNS_6localeE, symObjAddr: 0x8B60, symBinAddr: 0x100009B60, symSize: 0x30 }
  - { offsetInCU: 0xD7F1, offset: 0xD7F1, size: 0x8, addend: 0x0, symName: __ZNSt3__112__to_addressB8ue170006IiEEPT_S2_, symObjAddr: 0x9030, symBinAddr: 0x10000A030, symSize: 0x10 }
  - { offsetInCU: 0xD826, offset: 0xD826, size: 0x8, addend: 0x0, symName: __ZNSt3__13maxB8ue170006ImEERKT_S3_S3_, symObjAddr: 0x96A0, symBinAddr: 0x10000A6A0, symSize: 0x30 }
  - { offsetInCU: 0xD869, offset: 0xD869, size: 0x8, addend: 0x0, symName: __ZNSt3__13maxB8ue170006ImNS_6__lessIvvEEEERKT_S5_S5_T0_, symObjAddr: 0x9760, symBinAddr: 0x10000A760, symSize: 0x50 }
  - { offsetInCU: 0xD8C3, offset: 0xD8C3, size: 0x8, addend: 0x0, symName: __ZNSt3__119__allocate_at_leastB8ue170006INS_9allocatorIiEEEENS_19__allocation_resultINS_16allocator_traitsIT_E7pointerEEERS5_m, symObjAddr: 0x98B0, symBinAddr: 0x10000A8B0, symSize: 0x40 }
  - { offsetInCU: 0xD906, offset: 0xD906, size: 0x8, addend: 0x0, symName: __ZNSt3__142__uninitialized_allocator_move_if_noexceptB8ue170006INS_9allocatorIiEENS_16reverse_iteratorIPiEES5_ivEET1_RT_T0_S9_S6_, symObjAddr: 0x9A40, symBinAddr: 0x10000AA40, symSize: 0x70 }
  - { offsetInCU: 0xD982, offset: 0xD982, size: 0x8, addend: 0x0, symName: __ZNSt3__14swapB8ue170006IPiEENS_9enable_ifIXaasr21is_move_constructibleIT_EE5valuesr18is_move_assignableIS3_EE5valueEvE4typeERS3_S6_, symObjAddr: 0x9B00, symBinAddr: 0x10000AB00, symSize: 0x40 }
  - { offsetInCU: 0xD9D3, offset: 0xD9D3, size: 0x8, addend: 0x0, symName: __ZNSt3__14moveB8ue170006INS_16reverse_iteratorIPiEES3_EET0_T_S5_S4_, symObjAddr: 0x9BF0, symBinAddr: 0x10000ABF0, symSize: 0x80 }
  - { offsetInCU: 0xDA2D, offset: 0xDA2D, size: 0x8, addend: 0x0, symName: __ZNSt3__16__moveB8ue170006INS_17_ClassicAlgPolicyENS_16reverse_iteratorIPiEES4_S4_EENS_4pairIT0_T2_EES6_T1_S7_, symObjAddr: 0x9C70, symBinAddr: 0x10000AC70, symSize: 0x90 }
  - { offsetInCU: 0xDA99, offset: 0xDA99, size: 0x8, addend: 0x0, symName: __ZNSt3__123__dispatch_copy_or_moveB8ue170006INS_17_ClassicAlgPolicyENS_11__move_loopIS1_EENS_14__move_trivialENS_16reverse_iteratorIPiEES7_S7_EENS_4pairIT2_T4_EES9_T3_SA_, symObjAddr: 0x9D00, symBinAddr: 0x10000AD00, symSize: 0x90 }
  - { offsetInCU: 0xDB17, offset: 0xDB17, size: 0x8, addend: 0x0, symName: __ZNSt3__121__unwrap_and_dispatchB8ue170006INS_10__overloadINS_11__move_loopINS_17_ClassicAlgPolicyEEENS_14__move_trivialEEENS_16reverse_iteratorIPiEES9_S9_Li0EEENS_4pairIT0_T2_EESB_T1_SC_, symObjAddr: 0x9D90, symBinAddr: 0x10000AD90, symSize: 0x210 }
  - { offsetInCU: 0xDBA6, offset: 0xDBA6, size: 0x8, addend: 0x0, symName: __ZNSt3__114__unwrap_rangeB8ue170006INS_16reverse_iteratorIPiEES3_EENS_4pairIT0_S5_EET_S7_, symObjAddr: 0x9FA0, symBinAddr: 0x10000AFA0, symSize: 0x90 }
  - { offsetInCU: 0xDD57, offset: 0xDD57, size: 0x8, addend: 0x0, symName: __ZNSt3__113__unwrap_iterB8ue170006INS_16reverse_iteratorIPiEENS_18__unwrap_iter_implIS3_Lb0EEELi0EEEDTclsrT0_8__unwrapclsr3stdE7declvalIT_EEEES7_, symObjAddr: 0xA0D0, symBinAddr: 0x10000B0D0, symSize: 0x40 }
  - { offsetInCU: 0xDD9B, offset: 0xDD9B, size: 0x8, addend: 0x0, symName: __ZNSt3__19make_pairB8ue170006INS_16reverse_iteratorIPiEES3_EENS_4pairINS_18__unwrap_ref_decayIT_E4typeENS5_IT0_E4typeEEEOS6_OS9_, symObjAddr: 0xA110, symBinAddr: 0x10000B110, symSize: 0x30 }
  - { offsetInCU: 0xDDEA, offset: 0xDDEA, size: 0x8, addend: 0x0, symName: __ZNSt3__114__rewrap_rangeB8ue170006INS_16reverse_iteratorIPiEES3_EET_S4_T0_, symObjAddr: 0xA140, symBinAddr: 0x10000B140, symSize: 0x60 }
  - { offsetInCU: 0xDE36, offset: 0xDE36, size: 0x8, addend: 0x0, symName: __ZNSt3__113__rewrap_iterB8ue170006INS_16reverse_iteratorIPiEES3_NS_18__unwrap_iter_implIS3_Lb0EEEEET_S6_T0_, symObjAddr: 0xA1A0, symBinAddr: 0x10000B1A0, symSize: 0x70 }
  - { offsetInCU: 0xDE8B, offset: 0xDE8B, size: 0x8, addend: 0x0, symName: __ZNSt3__1neB8ue170006IPiS1_EEbRKNS_16reverse_iteratorIT_EERKNS2_IT0_EE, symObjAddr: 0xA210, symBinAddr: 0x10000B210, symSize: 0x40 }
  - { offsetInCU: 0xDF43, offset: 0xDF43, size: 0x8, addend: 0x0, symName: __ZNSt3__113__rewrap_iterB8ue170006INS_11__wrap_iterIPiEES2_NS_18__unwrap_iter_implIS3_Lb1EEEEET_S6_T0_, symObjAddr: 0xA5F0, symBinAddr: 0x10000B5F0, symSize: 0x50 }
  - { offsetInCU: 0xDF98, offset: 0xDF98, size: 0x8, addend: 0x0, symName: __ZNSt3__111__find_implB8ue170006IPiS1_iNS_10__identityEEET_S3_T0_RKT1_RT2_, symObjAddr: 0xA640, symBinAddr: 0x10000B640, symSize: 0x70 }
  - { offsetInCU: 0xE012, offset: 0xE012, size: 0x8, addend: 0x0, symName: __ZNSt3__113__unwrap_iterB8ue170006INS_11__wrap_iterIPiEENS_18__unwrap_iter_implIS3_Lb1EEELi0EEEDTclsrT0_8__unwrapclsr3stdE7declvalIT_EEEES7_, symObjAddr: 0xA6B0, symBinAddr: 0x10000B6B0, symSize: 0x30 }
  - { offsetInCU: 0xE0A9, offset: 0xE0A9, size: 0x8, addend: 0x0, symName: __ZNSt3__112__to_addressB8ue170006INS_11__wrap_iterIPiEEvEEu7__decayIDTclsr19__to_address_helperIT_EE6__callclsr3stdE7declvalIRKS4_EEEEES6_, symObjAddr: 0xA770, symBinAddr: 0x10000B770, symSize: 0x20 }
  - { offsetInCU: 0xE184, offset: 0xE184, size: 0x8, addend: 0x0, symName: __ZNSt3__18__invokeB8ue170006IRNS_10__identityEJRiEEEDTclclsr3stdE7declvalIT_EEspclsr3stdE7declvalIT0_EEEEOS4_DpOS5_, symObjAddr: 0xA810, symBinAddr: 0x10000B810, symSize: 0x30 }
  - { offsetInCU: 0xE202, offset: 0xE202, size: 0x8, addend: 0x0, symName: __ZNSt3__14sortB8ue170006INS_11__wrap_iterIPiEENS_6__lessIvvEEEEvT_S6_T0_, symObjAddr: 0xA880, symBinAddr: 0x10000B880, symSize: 0x40 }
  - { offsetInCU: 0xE25C, offset: 0xE25C, size: 0x8, addend: 0x0, symName: __ZNSt3__111__sort_implB8ue170006INS_17_ClassicAlgPolicyENS_11__wrap_iterIPiEENS_6__lessIvvEEEEvT0_S7_RT1_, symObjAddr: 0xA8C0, symBinAddr: 0x10000B8C0, symSize: 0xB0 }
  - { offsetInCU: 0xE2BF, offset: 0xE2BF, size: 0x8, addend: 0x0, symName: __ZNSt3__123__debug_randomize_rangeB8ue170006INS_17_ClassicAlgPolicyENS_11__wrap_iterIPiEES4_EEvT0_T1_, symObjAddr: 0xA970, symBinAddr: 0x10000B970, symSize: 0x10 }
  - { offsetInCU: 0xE310, offset: 0xE310, size: 0x8, addend: 0x0, symName: __ZNSt3__115__sort_dispatchB8ue170006INS_17_ClassicAlgPolicyEiLi0EEEvPT0_S3_RNS_6__lessIvvEE, symObjAddr: 0xA980, symBinAddr: 0x10000B980, symSize: 0x30 }
  - { offsetInCU: 0xE37B, offset: 0xE37B, size: 0x8, addend: 0x0, symName: __ZNSt3__135__check_strict_weak_ordering_sortedB8ue170006IPiNS_6__lessIvvEEEEvT_S4_RT0_, symObjAddr: 0xA9B0, symBinAddr: 0x10000B9B0, symSize: 0x20 }
  - { offsetInCU: 0xE3D1, offset: 0xE3D1, size: 0x8, addend: 0x0, symName: __ZNSt3__17getlineB8ue170006IcNS_11char_traitsIcEENS_9allocatorIcEEEERNS_13basic_istreamIT_T0_EES9_RNS_12basic_stringIS6_S7_T1_EES6_, symObjAddr: 0xAAD0, symBinAddr: 0x10000BAD0, symSize: 0x220 }
  - { offsetInCU: 0xE6C4, offset: 0xE6C4, size: 0x8, addend: 0x0, symName: __ZNSt3__110__str_findB8ue170006IcmNS_11char_traitsIcEELm18446744073709551615EEET0_PKT_S3_S6_S3_S3_, symObjAddr: 0xB200, symBinAddr: 0x10000C200, symSize: 0xB0 }
  - { offsetInCU: 0xE76B, offset: 0xE76B, size: 0x8, addend: 0x0, symName: __ZNSt3__118__search_substringB8ue170006IcNS_11char_traitsIcEEEEPKT_S5_S5_S5_S5_, symObjAddr: 0xB2B0, symBinAddr: 0x10000C2B0, symSize: 0x120 }
  - { offsetInCU: 0xE805, offset: 0xE805, size: 0x8, addend: 0x0, symName: __ZNSt3__118__constexpr_memchrB8ue170006IKccEEPT_S3_T0_m, symObjAddr: 0xB470, symBinAddr: 0x10000C470, symSize: 0x40 }
  - { offsetInCU: 0xE87B, offset: 0xE87B, size: 0x8, addend: 0x0, symName: __ZNSt3__112__to_addressB8ue170006I8timeEdgeEEPT_S3_, symObjAddr: 0xB8B0, symBinAddr: 0x10000C8B0, symSize: 0x10 }
  - { offsetInCU: 0xE8B0, offset: 0xE8B0, size: 0x8, addend: 0x0, symName: __ZNSt3__119__allocate_at_leastB8ue170006INS_9allocatorI8timeEdgeEEEENS_19__allocation_resultINS_16allocator_traitsIT_E7pointerEEERS6_m, symObjAddr: 0xBE50, symBinAddr: 0x10000CE50, symSize: 0x40 }
  - { offsetInCU: 0xE8F3, offset: 0xE8F3, size: 0x8, addend: 0x0, symName: __ZNSt3__142__uninitialized_allocator_move_if_noexceptB8ue170006INS_9allocatorI8timeEdgeEENS_16reverse_iteratorIPS2_EES6_S2_vEET1_RT_T0_SA_S7_, symObjAddr: 0xC0B0, symBinAddr: 0x10000D0B0, symSize: 0x70 }
  - { offsetInCU: 0xE96F, offset: 0xE96F, size: 0x8, addend: 0x0, symName: __ZNSt3__14swapB8ue170006IP8timeEdgeEENS_9enable_ifIXaasr21is_move_constructibleIT_EE5valuesr18is_move_assignableIS4_EE5valueEvE4typeERS4_S7_, symObjAddr: 0xC170, symBinAddr: 0x10000D170, symSize: 0x40 }
  - { offsetInCU: 0xE9C0, offset: 0xE9C0, size: 0x8, addend: 0x0, symName: __ZNSt3__14moveB8ue170006INS_16reverse_iteratorIP8timeEdgeEES4_EET0_T_S6_S5_, symObjAddr: 0xC2A0, symBinAddr: 0x10000D2A0, symSize: 0x80 }
  - { offsetInCU: 0xEA1A, offset: 0xEA1A, size: 0x8, addend: 0x0, symName: __ZNSt3__16__moveB8ue170006INS_17_ClassicAlgPolicyENS_16reverse_iteratorIP8timeEdgeEES5_S5_EENS_4pairIT0_T2_EES7_T1_S8_, symObjAddr: 0xC320, symBinAddr: 0x10000D320, symSize: 0x90 }
  - { offsetInCU: 0xEA86, offset: 0xEA86, size: 0x8, addend: 0x0, symName: __ZNSt3__123__dispatch_copy_or_moveB8ue170006INS_17_ClassicAlgPolicyENS_11__move_loopIS1_EENS_14__move_trivialENS_16reverse_iteratorIP8timeEdgeEES8_S8_EENS_4pairIT2_T4_EESA_T3_SB_, symObjAddr: 0xC3B0, symBinAddr: 0x10000D3B0, symSize: 0x90 }
  - { offsetInCU: 0xEB04, offset: 0xEB04, size: 0x8, addend: 0x0, symName: __ZNSt3__121__unwrap_and_dispatchB8ue170006INS_10__overloadINS_11__move_loopINS_17_ClassicAlgPolicyEEENS_14__move_trivialEEENS_16reverse_iteratorIP8timeEdgeEESA_SA_Li0EEENS_4pairIT0_T2_EESC_T1_SD_, symObjAddr: 0xC440, symBinAddr: 0x10000D440, symSize: 0x210 }
  - { offsetInCU: 0xEB93, offset: 0xEB93, size: 0x8, addend: 0x0, symName: __ZNSt3__114__unwrap_rangeB8ue170006INS_16reverse_iteratorIP8timeEdgeEES4_EENS_4pairIT0_S6_EET_S8_, symObjAddr: 0xC650, symBinAddr: 0x10000D650, symSize: 0x90 }
  - { offsetInCU: 0xECB3, offset: 0xECB3, size: 0x8, addend: 0x0, symName: __ZNSt3__113__unwrap_iterB8ue170006INS_16reverse_iteratorIP8timeEdgeEENS_18__unwrap_iter_implIS4_Lb0EEELi0EEEDTclsrT0_8__unwrapclsr3stdE7declvalIT_EEEES8_, symObjAddr: 0xC790, symBinAddr: 0x10000D790, symSize: 0x40 }
  - { offsetInCU: 0xECF7, offset: 0xECF7, size: 0x8, addend: 0x0, symName: __ZNSt3__19make_pairB8ue170006INS_16reverse_iteratorIP8timeEdgeEES4_EENS_4pairINS_18__unwrap_ref_decayIT_E4typeENS6_IT0_E4typeEEEOS7_OSA_, symObjAddr: 0xC7D0, symBinAddr: 0x10000D7D0, symSize: 0x30 }
  - { offsetInCU: 0xED46, offset: 0xED46, size: 0x8, addend: 0x0, symName: __ZNSt3__114__rewrap_rangeB8ue170006INS_16reverse_iteratorIP8timeEdgeEES4_EET_S5_T0_, symObjAddr: 0xC800, symBinAddr: 0x10000D800, symSize: 0x60 }
  - { offsetInCU: 0xED92, offset: 0xED92, size: 0x8, addend: 0x0, symName: __ZNSt3__113__rewrap_iterB8ue170006INS_16reverse_iteratorIP8timeEdgeEES4_NS_18__unwrap_iter_implIS4_Lb0EEEEET_S7_T0_, symObjAddr: 0xC860, symBinAddr: 0x10000D860, symSize: 0x70 }
  - { offsetInCU: 0xEDE7, offset: 0xEDE7, size: 0x8, addend: 0x0, symName: __ZNSt3__1neB8ue170006IP8timeEdgeS2_EEbRKNS_16reverse_iteratorIT_EERKNS3_IT0_EE, symObjAddr: 0xC8D0, symBinAddr: 0x10000D8D0, symSize: 0x40 }
  - { offsetInCU: 0xEE9F, offset: 0xEE9F, size: 0x8, addend: 0x0, symName: __ZNSt3__111__sort_implB8ue170006INS_17_ClassicAlgPolicyENS_11__wrap_iterIP8timeEdgeEE12compare_edgeEEvT0_S7_RT1_, symObjAddr: 0xCD60, symBinAddr: 0x10000DD60, symSize: 0xB0 }
  - { offsetInCU: 0xEF02, offset: 0xEF02, size: 0x8, addend: 0x0, symName: __ZNSt3__123__debug_randomize_rangeB8ue170006INS_17_ClassicAlgPolicyENS_11__wrap_iterIP8timeEdgeEES5_EEvT0_T1_, symObjAddr: 0xCE10, symBinAddr: 0x10000DE10, symSize: 0x10 }
  - { offsetInCU: 0xEF53, offset: 0xEF53, size: 0x8, addend: 0x0, symName: __ZNSt3__115__sort_dispatchB8ue170006INS_17_ClassicAlgPolicyEP8timeEdge12compare_edgeEEvT0_S5_RT1_, symObjAddr: 0xCE20, symBinAddr: 0x10000DE20, symSize: 0x60 }
  - { offsetInCU: 0xEFD1, offset: 0xEFD1, size: 0x8, addend: 0x0, symName: __ZNSt3__113__unwrap_iterB8ue170006INS_11__wrap_iterIP8timeEdgeEENS_18__unwrap_iter_implIS4_Lb1EEELi0EEEDTclsrT0_8__unwrapclsr3stdE7declvalIT_EEEES8_, symObjAddr: 0xCE80, symBinAddr: 0x10000DE80, symSize: 0x30 }
  - { offsetInCU: 0xF015, offset: 0xF015, size: 0x8, addend: 0x0, symName: __ZNSt3__135__check_strict_weak_ordering_sortedB8ue170006IP8timeEdge12compare_edgeEEvT_S4_RT0_, symObjAddr: 0xCEB0, symBinAddr: 0x10000DEB0, symSize: 0x20 }
  - { offsetInCU: 0xF06B, offset: 0xF06B, size: 0x8, addend: 0x0, symName: __ZNSt3__124__sort3_maybe_branchlessB8ue170006INS_17_ClassicAlgPolicyER12compare_edgeP8timeEdgeEENS_9enable_ifIXntsr21__use_branchless_sortIT0_T1_EE5valueEvE4typeES8_S8_S8_S7_, symObjAddr: 0xD370, symBinAddr: 0x10000E370, symSize: 0x40 }
  - { offsetInCU: 0xF0DC, offset: 0xF0DC, size: 0x8, addend: 0x0, symName: __ZNSt3__124__sort4_maybe_branchlessB8ue170006INS_17_ClassicAlgPolicyER12compare_edgeP8timeEdgeEENS_9enable_ifIXntsr21__use_branchless_sortIT0_T1_EE5valueEvE4typeES8_S8_S8_S8_S7_, symObjAddr: 0xD3B0, symBinAddr: 0x10000E3B0, symSize: 0x40 }
  - { offsetInCU: 0xF15B, offset: 0xF15B, size: 0x8, addend: 0x0, symName: __ZNSt3__124__sort5_maybe_branchlessB8ue170006INS_17_ClassicAlgPolicyER12compare_edgeP8timeEdgeEENS_9enable_ifIXntsr21__use_branchless_sortIT0_T1_EE5valueEvE4typeES8_S8_S8_S8_S8_S7_, symObjAddr: 0xD3F0, symBinAddr: 0x10000E3F0, symSize: 0x50 }
  - { offsetInCU: 0xF1E8, offset: 0xF1E8, size: 0x8, addend: 0x0, symName: __ZNSt3__116__insertion_sortB8ue170006INS_17_ClassicAlgPolicyER12compare_edgeP8timeEdgeEEvT1_S6_T0_, symObjAddr: 0xD440, symBinAddr: 0x10000E440, symSize: 0x140 }
  - { offsetInCU: 0xF2AB, offset: 0xF2AB, size: 0x8, addend: 0x0, symName: __ZNSt3__114__partial_sortB8ue170006INS_17_ClassicAlgPolicyER12compare_edgeP8timeEdgeS5_EET1_S6_S6_T2_RT0_, symObjAddr: 0xD6A0, symBinAddr: 0x10000E6A0, symSize: 0x90 }
  - { offsetInCU: 0xF333, offset: 0xF333, size: 0x8, addend: 0x0, symName: __ZNSt3__17__sort3B8ue170006INS_17_ClassicAlgPolicyER12compare_edgeP8timeEdgeEEjT1_S6_S6_T0_, symObjAddr: 0xD730, symBinAddr: 0x10000E730, symSize: 0x140 }
  - { offsetInCU: 0xF3B2, offset: 0xF3B2, size: 0x8, addend: 0x0, symName: __ZNSt3__19iter_swapB8ue170006IP8timeEdgeS2_EEvT_T0_, symObjAddr: 0xE200, symBinAddr: 0x10000F200, symSize: 0x30 }
  - { offsetInCU: 0xF3FA, offset: 0xF3FA, size: 0x8, addend: 0x0, symName: __ZNSt3__14swapB8ue170006I8timeEdgeEENS_9enable_ifIXaasr21is_move_constructibleIT_EE5valuesr18is_move_assignableIS3_EE5valueEvE4typeERS3_S6_, symObjAddr: 0xE230, symBinAddr: 0x10000F230, symSize: 0x60 }
  - { offsetInCU: 0xF44B, offset: 0xF44B, size: 0x8, addend: 0x0, symName: __ZNSt3__17__sort4B8ue170006INS_17_ClassicAlgPolicyER12compare_edgeP8timeEdgeEEvT1_S6_S6_S6_T0_, symObjAddr: 0xE290, symBinAddr: 0x10000F290, symSize: 0xD0 }
  - { offsetInCU: 0xF4C6, offset: 0xF4C6, size: 0x8, addend: 0x0, symName: __ZNSt3__17__sort5B8ue170006INS_17_ClassicAlgPolicyER12compare_edgeP8timeEdgeEEvT1_S6_S6_S6_S6_T0_, symObjAddr: 0xE360, symBinAddr: 0x10000F360, symSize: 0x100 }
  - { offsetInCU: 0xF54F, offset: 0xF54F, size: 0x8, addend: 0x0, symName: __ZNSt3__123__debug_randomize_rangeB8ue170006INS_17_ClassicAlgPolicyEP8timeEdgeS3_EEvT0_T1_, symObjAddr: 0xE4B0, symBinAddr: 0x10000F4B0, symSize: 0x10 }
  - { offsetInCU: 0xF5A0, offset: 0xF5A0, size: 0x8, addend: 0x0, symName: __ZNSt3__119__partial_sort_implB8ue170006INS_17_ClassicAlgPolicyER12compare_edgeP8timeEdgeS5_EET1_S6_S6_T2_OT0_, symObjAddr: 0xE4C0, symBinAddr: 0x10000F4C0, symSize: 0xF0 }
  - { offsetInCU: 0xF636, offset: 0xF636, size: 0x8, addend: 0x0, symName: __ZNSt3__111__make_heapB8ue170006INS_17_ClassicAlgPolicyER12compare_edgeP8timeEdgeEEvT1_S6_OT0_, symObjAddr: 0xE5B0, symBinAddr: 0x10000F5B0, symSize: 0xA0 }
  - { offsetInCU: 0xF6D8, offset: 0xF6D8, size: 0x8, addend: 0x0, symName: __ZNSt3__111__sort_heapB8ue170006INS_17_ClassicAlgPolicyER12compare_edgeP8timeEdgeEEvT1_S6_OT0_, symObjAddr: 0xE850, symBinAddr: 0x10000F850, symSize: 0x90 }
  - { offsetInCU: 0xF77A, offset: 0xF77A, size: 0x8, addend: 0x0, symName: __ZNSt3__110__pop_heapB8ue170006INS_17_ClassicAlgPolicyE12compare_edgeP8timeEdgeEEvT1_S5_RT0_NS_15iterator_traitsIS5_E15difference_typeE, symObjAddr: 0xE8E0, symBinAddr: 0x10000F8E0, symSize: 0x100 }
  - { offsetInCU: 0xF82A, offset: 0xF82A, size: 0x8, addend: 0x0, symName: __ZNSt3__19__sift_upB8ue170006INS_17_ClassicAlgPolicyER12compare_edgeP8timeEdgeEEvT1_S6_OT0_NS_15iterator_traitsIS6_E15difference_typeE, symObjAddr: 0xEAE0, symBinAddr: 0x10000FAE0, symSize: 0x130 }
  - { offsetInCU: 0xF8DA, offset: 0xF8DA, size: 0x8, addend: 0x0, symName: __ZNSt3__122__populate_left_bitsetB8ue170006IR12compare_edgeP8timeEdgeS3_EEvT0_T_RT1_Ry, symObjAddr: 0xEC10, symBinAddr: 0x10000FC10, symSize: 0x90 }
  - { offsetInCU: 0xF995, offset: 0xF995, size: 0x8, addend: 0x0, symName: __ZNSt3__123__populate_right_bitsetB8ue170006IR12compare_edgeP8timeEdgeS3_EEvT0_T_RT1_Ry, symObjAddr: 0xECA0, symBinAddr: 0x10000FCA0, symSize: 0x90 }
  - { offsetInCU: 0xFA50, offset: 0xFA50, size: 0x8, addend: 0x0, symName: __ZNSt3__117__swap_bitmap_posB8ue170006INS_17_ClassicAlgPolicyEP8timeEdgeEEvT0_S4_RyS5_, symObjAddr: 0xED30, symBinAddr: 0x10000FD30, symSize: 0xE0 }
  - { offsetInCU: 0xFAF1, offset: 0xFAF1, size: 0x8, addend: 0x0, symName: __ZNSt3__133__bitset_partition_partial_blocksB8ue170006INS_17_ClassicAlgPolicyER12compare_edgeP8timeEdgeS4_EEvRT1_S7_T0_RT2_RySB_, symObjAddr: 0xEE10, symBinAddr: 0x10000FE10, symSize: 0x260 }
  - { offsetInCU: 0xFC78, offset: 0xFC78, size: 0x8, addend: 0x0, symName: __ZNSt3__19make_pairB8ue170006IRP8timeEdgeRbEENS_4pairINS_18__unwrap_ref_decayIT_E4typeENS6_IT0_E4typeEEEOS7_OSA_, symObjAddr: 0xF200, symBinAddr: 0x100010200, symSize: 0x30 }
  - { offsetInCU: 0xFDEE, offset: 0xFDEE, size: 0x8, addend: 0x0, symName: __ZNSt3__112__to_addressB8ue170006INS_11__wrap_iterIP8timeEdgeEEvEEu7__decayIDTclsr19__to_address_helperIT_EE6__callclsr3stdE7declvalIRKS5_EEEEES7_, symObjAddr: 0xF2E0, symBinAddr: 0x1000102E0, symSize: 0x20 }
  - { offsetInCU: 0x102E0, offset: 0x102E0, size: 0x8, addend: 0x0, symName: __ZSt28__throw_bad_array_new_lengthB8ue170006v, symObjAddr: 0x55C0, symBinAddr: 0x1000065C0, symSize: 0x40 }
  - { offsetInCU: 0x10A4B, offset: 0x10A4B, size: 0x8, addend: 0x0, symName: __Z3powB8ue170006IdiENSt3__19enable_ifIXaasr3std13is_arithmeticIT_EE5valuesr3std13is_arithmeticIT0_EE5valueENS0_9__promoteIS2_S3_vEEE4type4typeES2_S3_, symObjAddr: 0x890, symBinAddr: 0x100001890, symSize: 0x30 }
  - { offsetInCU: 0x10AAC, offset: 0x10AAC, size: 0x8, addend: 0x0, symName: __ZNSt3__16vectorIiNS_9allocatorIiEEE26__swap_out_circular_bufferERNS_14__split_bufferIiRS2_EE, symObjAddr: 0x94E0, symBinAddr: 0x10000A4E0, symSize: 0x120 }
  - { offsetInCU: 0x10C88, offset: 0x10C88, size: 0x8, addend: 0x0, symName: __ZNSt3__16vectorI8timeEdgeNS_9allocatorIS1_EEE26__swap_out_circular_bufferERNS_14__split_bufferIS1_RS3_EE, symObjAddr: 0xBA80, symBinAddr: 0x10000CA80, symSize: 0x120 }
  - { offsetInCU: 0x13047, offset: 0x13047, size: 0x8, addend: 0x0, symName: __Z16compute_accuracyPdPbii, symObjAddr: 0x0, symBinAddr: 0x100001000, symSize: 0x340 }
  - { offsetInCU: 0x1318D, offset: 0x1318D, size: 0x8, addend: 0x0, symName: __ZNSt3__16vectorImNS_9allocatorImEEEC1Em, symObjAddr: 0x340, symBinAddr: 0x100001340, symSize: 0x30 }
  - { offsetInCU: 0x131C8, offset: 0x131C8, size: 0x8, addend: 0x0, symName: __ZNSt3__16vectorImNS_9allocatorImEEE5beginB8ue170006Ev, symObjAddr: 0x3E0, symBinAddr: 0x1000013E0, symSize: 0x30 }
  - { offsetInCU: 0x131F0, offset: 0x131F0, size: 0x8, addend: 0x0, symName: __ZNSt3__16vectorImNS_9allocatorImEEE3endB8ue170006Ev, symObjAddr: 0x410, symBinAddr: 0x100001410, symSize: 0x30 }
  - { offsetInCU: 0x13218, offset: 0x13218, size: 0x8, addend: 0x0, symName: __ZNSt3__16vectorImNS_9allocatorImEEEixB8ue170006Em, symObjAddr: 0x480, symBinAddr: 0x100001480, symSize: 0x20 }
  - { offsetInCU: 0x1324F, offset: 0x1324F, size: 0x8, addend: 0x0, symName: __ZNSt3__113basic_ostreamIcNS_11char_traitsIcEEElsB8ue170006EPFRS3_S4_E, symObjAddr: 0x4E0, symBinAddr: 0x1000014E0, symSize: 0x20 }
  - { offsetInCU: 0x13283, offset: 0x13283, size: 0x8, addend: 0x0, symName: __ZNSt3__16vectorImNS_9allocatorImEEED1B8ue170006Ev, symObjAddr: 0x550, symBinAddr: 0x100001550, symSize: 0x20 }
  - { offsetInCU: 0x132AC, offset: 0x132AC, size: 0x8, addend: 0x0, symName: __Z11score_absumPdi, symObjAddr: 0x570, symBinAddr: 0x100001570, symSize: 0x60 }
  - { offsetInCU: 0x13310, offset: 0x13310, size: 0x8, addend: 0x0, symName: __Z3absB8ue170006d, symObjAddr: 0x5D0, symBinAddr: 0x1000015D0, symSize: 0x20 }
  - { offsetInCU: 0x1333C, offset: 0x1333C, size: 0x8, addend: 0x0, symName: __Z9normalizePPdii, symObjAddr: 0x5F0, symBinAddr: 0x1000015F0, symSize: 0x2A0 }
  - { offsetInCU: 0x13460, offset: 0x13460, size: 0x8, addend: 0x0, symName: __Z16normalize_onlinePdS_S_id, symObjAddr: 0x8C0, symBinAddr: 0x1000018C0, symSize: 0x1E0 }
  - { offsetInCU: 0x13515, offset: 0x13515, size: 0x8, addend: 0x0, symName: __Z21compute_anomaly_scoreiPPdS0_S0_S0_i, symObjAddr: 0xAA0, symBinAddr: 0x100001AA0, symSize: 0x560 }
  - { offsetInCU: 0x136C6, offset: 0x136C6, size: 0x8, addend: 0x0, symName: __Z6injectP7outEdgeiii, symObjAddr: 0x1030, symBinAddr: 0x100002030, symSize: 0x150 }
  - { offsetInCU: 0x13743, offset: 0x13743, size: 0x8, addend: 0x0, symName: __ZNKSt3__16vectorIiNS_9allocatorIiEEE4sizeB8ue170006Ev, symObjAddr: 0x1180, symBinAddr: 0x100002180, symSize: 0x20 }
  - { offsetInCU: 0x13769, offset: 0x13769, size: 0x8, addend: 0x0, symName: __ZNSt3__16vectorIiNS_9allocatorIiEEEixB8ue170006Em, symObjAddr: 0x11A0, symBinAddr: 0x1000021A0, symSize: 0x20 }
  - { offsetInCU: 0x137A0, offset: 0x137A0, size: 0x8, addend: 0x0, symName: __ZNSt3__16vectorIiNS_9allocatorIiEEE9push_backB8ue170006ERKi, symObjAddr: 0x11C0, symBinAddr: 0x1000021C0, symSize: 0x60 }
  - { offsetInCU: 0x137D6, offset: 0x137D6, size: 0x8, addend: 0x0, symName: __Z14inject_anomalyiP7outEdgeii, symObjAddr: 0x1220, symBinAddr: 0x100002220, symSize: 0x810 }
  - { offsetInCU: 0x13A25, offset: 0x13A25, size: 0x8, addend: 0x0, symName: __ZNSt3__16vectorIiNS_9allocatorIiEEE5beginB8ue170006Ev, symObjAddr: 0x1AE0, symBinAddr: 0x100002AE0, symSize: 0x30 }
  - { offsetInCU: 0x13A4D, offset: 0x13A4D, size: 0x8, addend: 0x0, symName: __ZNSt3__16vectorIiNS_9allocatorIiEEE3endB8ue170006Ev, symObjAddr: 0x1B10, symBinAddr: 0x100002B10, symSize: 0x30 }
  - { offsetInCU: 0x13A74, offset: 0x13A74, size: 0x8, addend: 0x0, symName: __Z15inject_snapshotiiiRNSt3__16vectorIiNS_9allocatorIiEEEES4_, symObjAddr: 0x1B70, symBinAddr: 0x100002B70, symSize: 0x190 }
  - { offsetInCU: 0x13AFE, offset: 0x13AFE, size: 0x8, addend: 0x0, symName: __Z8pagerankP7outEdgePdiii, symObjAddr: 0x1D40, symBinAddr: 0x100002D40, symSize: 0x660 }
  - { offsetInCU: 0x13D16, offset: 0x13D16, size: 0x8, addend: 0x0, symName: __ZNKSt3__111__wrap_iterIPiEdeB8ue170006Ev, symObjAddr: 0x23A0, symBinAddr: 0x1000033A0, symSize: 0x20 }
  - { offsetInCU: 0x13D3C, offset: 0x13D3C, size: 0x8, addend: 0x0, symName: __ZNSt3__111__wrap_iterIPiEppB8ue170006Ei, symObjAddr: 0x23C0, symBinAddr: 0x1000033C0, symSize: 0x30 }
  - { offsetInCU: 0x13D7A, offset: 0x13D7A, size: 0x8, addend: 0x0, symName: __Z9read_dataNSt3__112basic_stringIcNS_11char_traitsIcEENS_9allocatorIcEEEES5_iRNS_6vectorI8timeEdgeNS3_IS7_EEEERNS6_IiNS3_IiEEEERiSE_SE_, symObjAddr: 0x23F0, symBinAddr: 0x1000033F0, symSize: 0x760 }
  - { offsetInCU: 0x13ED4, offset: 0x13ED4, size: 0x8, addend: 0x0, symName: __ZNSt3__16vectorIiNS_9allocatorIiEEEC1B8ue170006Ev, symObjAddr: 0x2B50, symBinAddr: 0x100003B50, symSize: 0x20 }
  - { offsetInCU: 0x13EFE, offset: 0x13EFE, size: 0x8, addend: 0x0, symName: __ZNKSt3__112basic_stringIcNS_11char_traitsIcEENS_9allocatorIcEEE5c_strB8ue170006Ev, symObjAddr: 0x2B70, symBinAddr: 0x100003B70, symSize: 0x20 }
  - { offsetInCU: 0x14040, offset: 0x14040, size: 0x8, addend: 0x0, symName: __ZNSt3__114basic_ifstreamIcNS_11char_traitsIcEEEC1EPKcj, symObjAddr: 0x2B90, symBinAddr: 0x100003B90, symSize: 0x160 }
  - { offsetInCU: 0x1408A, offset: 0x1408A, size: 0x8, addend: 0x0, symName: __ZNSt3__112basic_stringIcNS_11char_traitsIcEENS_9allocatorIcEEEC1B8ue170006Ev, symObjAddr: 0x2CF0, symBinAddr: 0x100003CF0, symSize: 0x20 }
  - { offsetInCU: 0x140B4, offset: 0x140B4, size: 0x8, addend: 0x0, symName: __ZNKSt3__19basic_iosIcNS_11char_traitsIcEEEcvbB8ue170006Ev, symObjAddr: 0x2D60, symBinAddr: 0x100003D60, symSize: 0x30 }
  - { offsetInCU: 0x140DA, offset: 0x140DA, size: 0x8, addend: 0x0, symName: __ZNKSt3__112basic_stringIcNS_11char_traitsIcEENS_9allocatorIcEEE4findB8ue170006ERKS5_m, symObjAddr: 0x2D90, symBinAddr: 0x100003D90, symSize: 0x70 }
  - { offsetInCU: 0x14120, offset: 0x14120, size: 0x8, addend: 0x0, symName: __ZNSt3__16vectorIiNS_9allocatorIiEEE9push_backB8ue170006EOi, symObjAddr: 0x2E00, symBinAddr: 0x100003E00, symSize: 0x60 }
  - { offsetInCU: 0x14157, offset: 0x14157, size: 0x8, addend: 0x0, symName: __ZNKSt3__112basic_stringIcNS_11char_traitsIcEENS_9allocatorIcEEE6substrB8ue170006Emm, symObjAddr: 0x2E60, symBinAddr: 0x100003E60, symSize: 0x70 }
  - { offsetInCU: 0x1419B, offset: 0x1419B, size: 0x8, addend: 0x0, symName: __ZNKSt3__112basic_stringIcNS_11char_traitsIcEENS_9allocatorIcEEE6lengthB8ue170006Ev, symObjAddr: 0x2ED0, symBinAddr: 0x100003ED0, symSize: 0x20 }
  - { offsetInCU: 0x141C1, offset: 0x141C1, size: 0x8, addend: 0x0, symName: __ZNSt3__16vectorI8timeEdgeNS_9allocatorIS1_EEE9push_backB8ue170006EOS1_, symObjAddr: 0x2EF0, symBinAddr: 0x100003EF0, symSize: 0x60 }
  - { offsetInCU: 0x141F8, offset: 0x141F8, size: 0x8, addend: 0x0, symName: __ZN8timeEdgeC1ERNSt3__16vectorIiNS0_9allocatorIiEEEE, symObjAddr: 0x2F50, symBinAddr: 0x100003F50, symSize: 0x30 }
  - { offsetInCU: 0x14230, offset: 0x14230, size: 0x8, addend: 0x0, symName: __ZNSt3__16vectorIiNS_9allocatorIiEEED1B8ue170006Ev, symObjAddr: 0x2F80, symBinAddr: 0x100003F80, symSize: 0x20 }
  - { offsetInCU: 0x1425A, offset: 0x1425A, size: 0x8, addend: 0x0, symName: __ZNSt3__114basic_ifstreamIcNS_11char_traitsIcEEE5closeEv, symObjAddr: 0x2FA0, symBinAddr: 0x100003FA0, symSize: 0x50 }
  - { offsetInCU: 0x14282, offset: 0x14282, size: 0x8, addend: 0x0, symName: __ZNSt3__16vectorI8timeEdgeNS_9allocatorIS1_EEE5beginB8ue170006Ev, symObjAddr: 0x3030, symBinAddr: 0x100004030, symSize: 0x30 }
  - { offsetInCU: 0x142AA, offset: 0x142AA, size: 0x8, addend: 0x0, symName: __ZNSt3__16vectorI8timeEdgeNS_9allocatorIS1_EEE3endB8ue170006Ev, symObjAddr: 0x3060, symBinAddr: 0x100004060, symSize: 0x30 }
  - { offsetInCU: 0x142D2, offset: 0x142D2, size: 0x8, addend: 0x0, symName: __ZNKSt3__16vectorI8timeEdgeNS_9allocatorIS1_EEE4sizeB8ue170006Ev, symObjAddr: 0x3090, symBinAddr: 0x100004090, symSize: 0x20 }
  - { offsetInCU: 0x142F8, offset: 0x142F8, size: 0x8, addend: 0x0, symName: __ZNSt3__16vectorI8timeEdgeNS_9allocatorIS1_EEEixB8ue170006Em, symObjAddr: 0x30B0, symBinAddr: 0x1000040B0, symSize: 0x20 }
  - { offsetInCU: 0x14334, offset: 0x14334, size: 0x8, addend: 0x0, symName: __ZNSt3__114basic_ifstreamIcNS_11char_traitsIcEEED1Ev, symObjAddr: 0x30D0, symBinAddr: 0x1000040D0, symSize: 0x40 }
  - { offsetInCU: 0x14361, offset: 0x14361, size: 0x8, addend: 0x0, symName: _main, symObjAddr: 0x3110, symBinAddr: 0x100004110, symSize: 0x13B0 }
  - { offsetInCU: 0x146CD, offset: 0x146CD, size: 0x8, addend: 0x0, symName: __ZNSt3__112basic_stringIcNS_11char_traitsIcEENS_9allocatorIcEEEC1B8ue170006ILi0EEEPKc, symObjAddr: 0x44C0, symBinAddr: 0x1000054C0, symSize: 0x30 }
  - { offsetInCU: 0x1470C, offset: 0x1470C, size: 0x8, addend: 0x0, symName: __ZNSt3__16vectorI8timeEdgeNS_9allocatorIS1_EEEC1B8ue170006Ev, symObjAddr: 0x44F0, symBinAddr: 0x1000054F0, symSize: 0x20 }
  - { offsetInCU: 0x14782, offset: 0x14782, size: 0x8, addend: 0x0, symName: __ZN7outEdgeC1Ev, symObjAddr: 0x4510, symBinAddr: 0x100005510, symSize: 0x20 }
  - { offsetInCU: 0x147AC, offset: 0x147AC, size: 0x8, addend: 0x0, symName: __ZN7outEdgeD1Ev, symObjAddr: 0x4530, symBinAddr: 0x100005530, symSize: 0x20 }
  - { offsetInCU: 0x147F2, offset: 0x147F2, size: 0x8, addend: 0x0, symName: __ZNSt3__114basic_ofstreamIcNS_11char_traitsIcEEEC1Ev, symObjAddr: 0x4550, symBinAddr: 0x100005550, symSize: 0xE0 }
  - { offsetInCU: 0x1481E, offset: 0x1481E, size: 0x8, addend: 0x0, symName: __ZNSt3__114basic_ofstreamIcNS_11char_traitsIcEEE5closeEv, symObjAddr: 0x4630, symBinAddr: 0x100005630, symSize: 0x50 }
  - { offsetInCU: 0x1484B, offset: 0x1484B, size: 0x8, addend: 0x0, symName: __ZNSt3__114basic_ofstreamIcNS_11char_traitsIcEEED1Ev, symObjAddr: 0x4680, symBinAddr: 0x100005680, symSize: 0x40 }
  - { offsetInCU: 0x14878, offset: 0x14878, size: 0x8, addend: 0x0, symName: __ZNSt3__16vectorI8timeEdgeNS_9allocatorIS1_EEED1B8ue170006Ev, symObjAddr: 0x46C0, symBinAddr: 0x1000056C0, symSize: 0x20 }
  - { offsetInCU: 0x148B6, offset: 0x148B6, size: 0x8, addend: 0x0, symName: __ZNKSt3__16__lessIvvEclB8ue170006IddEEbRKT_RKT0_, symObjAddr: 0x4730, symBinAddr: 0x100005730, symSize: 0x30 }
  - { offsetInCU: 0x1490A, offset: 0x1490A, size: 0x8, addend: 0x0, symName: __ZNKSt3__111__wrap_iterIPiE4baseB8ue170006Ev, symObjAddr: 0x4760, symBinAddr: 0x100005760, symSize: 0x20 }
  - { offsetInCU: 0x14930, offset: 0x14930, size: 0x8, addend: 0x0, symName: __ZNSt3__111__wrap_iterIPiEppB8ue170006Ev, symObjAddr: 0x4780, symBinAddr: 0x100005780, symSize: 0x20 }
  - { offsetInCU: 0x14956, offset: 0x14956, size: 0x8, addend: 0x0, symName: __ZN8timeEdgeC2ERNSt3__16vectorIiNS0_9allocatorIiEEEE, symObjAddr: 0x47A0, symBinAddr: 0x1000057A0, symSize: 0xB0 }
  - { offsetInCU: 0x1498E, offset: 0x1498E, size: 0x8, addend: 0x0, symName: __ZNSt3__114basic_ifstreamIcNS_11char_traitsIcEEED2Ev, symObjAddr: 0x4850, symBinAddr: 0x100005850, symSize: 0x60 }
  - { offsetInCU: 0x149C8, offset: 0x149C8, size: 0x8, addend: 0x0, symName: __ZTv0_n24_NSt3__114basic_ifstreamIcNS_11char_traitsIcEEED1Ev, symObjAddr: 0x48B0, symBinAddr: 0x1000058B0, symSize: 0x20 }
  - { offsetInCU: 0x149DF, offset: 0x149DF, size: 0x8, addend: 0x0, symName: __ZN7outEdgeC2Ev, symObjAddr: 0x48D0, symBinAddr: 0x1000058D0, symSize: 0x40 }
  - { offsetInCU: 0x14A09, offset: 0x14A09, size: 0x8, addend: 0x0, symName: __ZN7outEdgeD2Ev, symObjAddr: 0x4910, symBinAddr: 0x100005910, symSize: 0x30 }
  - { offsetInCU: 0x14A35, offset: 0x14A35, size: 0x8, addend: 0x0, symName: __ZNSt3__114basic_ofstreamIcNS_11char_traitsIcEEED2Ev, symObjAddr: 0x4940, symBinAddr: 0x100005940, symSize: 0x60 }
  - { offsetInCU: 0x14A6F, offset: 0x14A6F, size: 0x8, addend: 0x0, symName: __ZTv0_n24_NSt3__114basic_ofstreamIcNS_11char_traitsIcEEED1Ev, symObjAddr: 0x49A0, symBinAddr: 0x1000059A0, symSize: 0x20 }
  - { offsetInCU: 0x14A86, offset: 0x14A86, size: 0x8, addend: 0x0, symName: __ZNSt3__112basic_stringIcNS_11char_traitsIcEENS_9allocatorIcEEEC2B8ue170006Ev, symObjAddr: 0x49C0, symBinAddr: 0x1000059C0, symSize: 0x50 }
  - { offsetInCU: 0x14AB6, offset: 0x14AB6, size: 0x8, addend: 0x0, symName: __ZNSt3__117__compressed_pairINS_12basic_stringIcNS_11char_traitsIcEENS_9allocatorIcEEE5__repES5_EC1B8ue170006INS_18__default_init_tagESA_EEOT_OT0_, symObjAddr: 0x4A10, symBinAddr: 0x100005A10, symSize: 0x30 }
  - { offsetInCU: 0x14B0E, offset: 0x14B0E, size: 0x8, addend: 0x0, symName: __ZNSt3__112basic_stringIcNS_11char_traitsIcEENS_9allocatorIcEEE14__default_initB8ue170006Ev, symObjAddr: 0x4A50, symBinAddr: 0x100005A50, symSize: 0x50 }
  - { offsetInCU: 0x14B34, offset: 0x14B34, size: 0x8, addend: 0x0, symName: __ZNSt3__117__compressed_pairINS_12basic_stringIcNS_11char_traitsIcEENS_9allocatorIcEEE5__repES5_EC2B8ue170006INS_18__default_init_tagESA_EEOT_OT0_, symObjAddr: 0x4AA0, symBinAddr: 0x100005AA0, symSize: 0x30 }
  - { offsetInCU: 0x14B8C, offset: 0x14B8C, size: 0x8, addend: 0x0, symName: __ZNSt3__122__compressed_pair_elemINS_12basic_stringIcNS_11char_traitsIcEENS_9allocatorIcEEE5__repELi0ELb0EEC2B8ue170006ENS_18__default_init_tagE, symObjAddr: 0x4AD0, symBinAddr: 0x100005AD0, symSize: 0x10 }
  - { offsetInCU: 0x14BC1, offset: 0x14BC1, size: 0x8, addend: 0x0, symName: __ZNSt3__122__compressed_pair_elemINS_9allocatorIcEELi1ELb1EEC2B8ue170006ENS_18__default_init_tagE, symObjAddr: 0x4AE0, symBinAddr: 0x100005AE0, symSize: 0x20 }
  - { offsetInCU: 0x14BF6, offset: 0x14BF6, size: 0x8, addend: 0x0, symName: __ZNSt3__19allocatorIcEC2B8ue170006Ev, symObjAddr: 0x4B00, symBinAddr: 0x100005B00, symSize: 0x20 }
  - { offsetInCU: 0x14C20, offset: 0x14C20, size: 0x8, addend: 0x0, symName: __ZNSt3__116__non_trivial_ifILb1ENS_9allocatorIcEEEC2B8ue170006Ev, symObjAddr: 0x4B20, symBinAddr: 0x100005B20, symSize: 0x10 }
  - { offsetInCU: 0x14C4A, offset: 0x14C4A, size: 0x8, addend: 0x0, symName: __ZNSt3__117__compressed_pairINS_12basic_stringIcNS_11char_traitsIcEENS_9allocatorIcEEE5__repES5_E5firstB8ue170006Ev, symObjAddr: 0x4B30, symBinAddr: 0x100005B30, symSize: 0x20 }
  - { offsetInCU: 0x14C70, offset: 0x14C70, size: 0x8, addend: 0x0, symName: __ZNSt3__122__compressed_pair_elemINS_12basic_stringIcNS_11char_traitsIcEENS_9allocatorIcEEE5__repELi0ELb0EE5__getB8ue170006Ev, symObjAddr: 0x4B50, symBinAddr: 0x100005B50, symSize: 0x10 }
  - { offsetInCU: 0x14C96, offset: 0x14C96, size: 0x8, addend: 0x0, symName: __ZNKSt3__112basic_stringIcNS_11char_traitsIcEENS_9allocatorIcEEE4dataB8ue170006Ev, symObjAddr: 0x4B60, symBinAddr: 0x100005B60, symSize: 0x30 }
  - { offsetInCU: 0x14CBC, offset: 0x14CBC, size: 0x8, addend: 0x0, symName: __ZNKSt3__112basic_stringIcNS_11char_traitsIcEENS_9allocatorIcEEE13__get_pointerB8ue170006Ev, symObjAddr: 0x4BA0, symBinAddr: 0x100005BA0, symSize: 0x50 }
  - { offsetInCU: 0x14CE2, offset: 0x14CE2, size: 0x8, addend: 0x0, symName: __ZNKSt3__112basic_stringIcNS_11char_traitsIcEENS_9allocatorIcEEE9__is_longB8ue170006Ev, symObjAddr: 0x4BF0, symBinAddr: 0x100005BF0, symSize: 0x30 }
  - { offsetInCU: 0x14D08, offset: 0x14D08, size: 0x8, addend: 0x0, symName: __ZNKSt3__112basic_stringIcNS_11char_traitsIcEENS_9allocatorIcEEE18__get_long_pointerB8ue170006Ev, symObjAddr: 0x4C20, symBinAddr: 0x100005C20, symSize: 0x20 }
  - { offsetInCU: 0x14D2E, offset: 0x14D2E, size: 0x8, addend: 0x0, symName: __ZNKSt3__112basic_stringIcNS_11char_traitsIcEENS_9allocatorIcEEE19__get_short_pointerB8ue170006Ev, symObjAddr: 0x4C40, symBinAddr: 0x100005C40, symSize: 0x30 }
  - { offsetInCU: 0x14D54, offset: 0x14D54, size: 0x8, addend: 0x0, symName: __ZNKSt3__117__compressed_pairINS_12basic_stringIcNS_11char_traitsIcEENS_9allocatorIcEEE5__repES5_E5firstB8ue170006Ev, symObjAddr: 0x4C70, symBinAddr: 0x100005C70, symSize: 0x20 }
  - { offsetInCU: 0x14D7A, offset: 0x14D7A, size: 0x8, addend: 0x0, symName: __ZNKSt3__122__compressed_pair_elemINS_12basic_stringIcNS_11char_traitsIcEENS_9allocatorIcEEE5__repELi0ELb0EE5__getB8ue170006Ev, symObjAddr: 0x4C90, symBinAddr: 0x100005C90, symSize: 0x10 }
  - { offsetInCU: 0x14DA0, offset: 0x14DA0, size: 0x8, addend: 0x0, symName: __ZNSt3__114pointer_traitsIPKcE10pointer_toB8ue170006ERS1_, symObjAddr: 0x4CA0, symBinAddr: 0x100005CA0, symSize: 0x10 }
  - { offsetInCU: 0x14DC3, offset: 0x14DC3, size: 0x8, addend: 0x0, symName: __ZNSt3__112basic_stringIcNS_11char_traitsIcEENS_9allocatorIcEEEC2B8ue170006ILi0EEEPKc, symObjAddr: 0x4CB0, symBinAddr: 0x100005CB0, symSize: 0x50 }
  - { offsetInCU: 0x14E02, offset: 0x14E02, size: 0x8, addend: 0x0, symName: __ZNSt3__111char_traitsIcE6lengthB8ue170006EPKc, symObjAddr: 0x4D00, symBinAddr: 0x100005D00, symSize: 0x30 }
  - { offsetInCU: 0x14E25, offset: 0x14E25, size: 0x8, addend: 0x0, symName: __ZNSt3__16vectorImNS_9allocatorImEEEC2Em, symObjAddr: 0x4D50, symBinAddr: 0x100005D50, symSize: 0xD0 }
  - { offsetInCU: 0x14E7B, offset: 0x14E7B, size: 0x8, addend: 0x0, symName: __ZNSt3__117__compressed_pairIPmNS_9allocatorImEEEC1B8ue170006IDnNS_18__default_init_tagEEEOT_OT0_, symObjAddr: 0x4E20, symBinAddr: 0x100005E20, symSize: 0x30 }
  - { offsetInCU: 0x14ED3, offset: 0x14ED3, size: 0x8, addend: 0x0, symName: __ZNSt3__16vectorImNS_9allocatorImEEE16__destroy_vectorC1B8ue170006ERS3_, symObjAddr: 0x4E90, symBinAddr: 0x100005E90, symSize: 0x30 }
  - { offsetInCU: 0x14F0C, offset: 0x14F0C, size: 0x8, addend: 0x0, symName: __ZNSt3__16vectorImNS_9allocatorImEEE11__vallocateB8ue170006Em, symObjAddr: 0x4EC0, symBinAddr: 0x100005EC0, symSize: 0xA0 }
  - { offsetInCU: 0x14F50, offset: 0x14F50, size: 0x8, addend: 0x0, symName: __ZNSt3__16vectorImNS_9allocatorImEEE18__construct_at_endEm, symObjAddr: 0x4F60, symBinAddr: 0x100005F60, symSize: 0xC0 }
  - { offsetInCU: 0x14FC2, offset: 0x14FC2, size: 0x8, addend: 0x0, symName: __ZNSt3__128__exception_guard_exceptionsINS_6vectorImNS_9allocatorImEEE16__destroy_vectorEE10__completeB8ue170006Ev, symObjAddr: 0x5020, symBinAddr: 0x100006020, symSize: 0x20 }
  - { offsetInCU: 0x14FE8, offset: 0x14FE8, size: 0x8, addend: 0x0, symName: __ZNSt3__128__exception_guard_exceptionsINS_6vectorImNS_9allocatorImEEE16__destroy_vectorEED1B8ue170006Ev, symObjAddr: 0x5040, symBinAddr: 0x100006040, symSize: 0x20 }
  - { offsetInCU: 0x15012, offset: 0x15012, size: 0x8, addend: 0x0, symName: __ZNSt3__117__compressed_pairIPmNS_9allocatorImEEEC2B8ue170006IDnNS_18__default_init_tagEEEOT_OT0_, symObjAddr: 0x5060, symBinAddr: 0x100006060, symSize: 0x40 }
  - { offsetInCU: 0x1506A, offset: 0x1506A, size: 0x8, addend: 0x0, symName: __ZNSt3__122__compressed_pair_elemIPmLi0ELb0EEC2B8ue170006IDnvEEOT_, symObjAddr: 0x50A0, symBinAddr: 0x1000060A0, symSize: 0x20 }
  - { offsetInCU: 0x150AC, offset: 0x150AC, size: 0x8, addend: 0x0, symName: __ZNSt3__122__compressed_pair_elemINS_9allocatorImEELi1ELb1EEC2B8ue170006ENS_18__default_init_tagE, symObjAddr: 0x50C0, symBinAddr: 0x1000060C0, symSize: 0x20 }
  - { offsetInCU: 0x150E1, offset: 0x150E1, size: 0x8, addend: 0x0, symName: __ZNSt3__19allocatorImEC2B8ue170006Ev, symObjAddr: 0x50E0, symBinAddr: 0x1000060E0, symSize: 0x20 }
  - { offsetInCU: 0x1510B, offset: 0x1510B, size: 0x8, addend: 0x0, symName: __ZNSt3__116__non_trivial_ifILb1ENS_9allocatorImEEEC2B8ue170006Ev, symObjAddr: 0x5100, symBinAddr: 0x100006100, symSize: 0x10 }
  - { offsetInCU: 0x15135, offset: 0x15135, size: 0x8, addend: 0x0, symName: __ZNSt3__128__exception_guard_exceptionsINS_6vectorImNS_9allocatorImEEE16__destroy_vectorEEC1B8ue170006ES5_, symObjAddr: 0x5110, symBinAddr: 0x100006110, symSize: 0x30 }
  - { offsetInCU: 0x1516D, offset: 0x1516D, size: 0x8, addend: 0x0, symName: __ZNSt3__128__exception_guard_exceptionsINS_6vectorImNS_9allocatorImEEE16__destroy_vectorEEC2B8ue170006ES5_, symObjAddr: 0x5140, symBinAddr: 0x100006140, symSize: 0x20 }
  - { offsetInCU: 0x151A5, offset: 0x151A5, size: 0x8, addend: 0x0, symName: __ZNSt3__16vectorImNS_9allocatorImEEE16__destroy_vectorC2B8ue170006ERS3_, symObjAddr: 0x5160, symBinAddr: 0x100006160, symSize: 0x20 }
  - { offsetInCU: 0x151DE, offset: 0x151DE, size: 0x8, addend: 0x0, symName: __ZNKSt3__16vectorImNS_9allocatorImEEE8max_sizeEv, symObjAddr: 0x5180, symBinAddr: 0x100006180, symSize: 0x60 }
  - { offsetInCU: 0x15206, offset: 0x15206, size: 0x8, addend: 0x0, symName: __ZNKSt3__16vectorImNS_9allocatorImEEE20__throw_length_errorB8ue170006Ev, symObjAddr: 0x51E0, symBinAddr: 0x1000061E0, symSize: 0x20 }
  - { offsetInCU: 0x1522C, offset: 0x1522C, size: 0x8, addend: 0x0, symName: __ZNSt3__16vectorImNS_9allocatorImEEE7__allocB8ue170006Ev, symObjAddr: 0x5240, symBinAddr: 0x100006240, symSize: 0x20 }
  - { offsetInCU: 0x15252, offset: 0x15252, size: 0x8, addend: 0x0, symName: __ZNSt3__16vectorImNS_9allocatorImEEE9__end_capB8ue170006Ev, symObjAddr: 0x5260, symBinAddr: 0x100006260, symSize: 0x20 }
  - { offsetInCU: 0x15278, offset: 0x15278, size: 0x8, addend: 0x0, symName: __ZNKSt3__16vectorImNS_9allocatorImEEE14__annotate_newB8ue170006Em, symObjAddr: 0x5280, symBinAddr: 0x100006280, symSize: 0xB0 }
  - { offsetInCU: 0x152B7, offset: 0x152B7, size: 0x8, addend: 0x0, symName: __ZNSt3__116allocator_traitsINS_9allocatorImEEE8max_sizeB8ue170006IS2_vEEmRKS2_, symObjAddr: 0x5360, symBinAddr: 0x100006360, symSize: 0x20 }
  - { offsetInCU: 0x152E5, offset: 0x152E5, size: 0x8, addend: 0x0, symName: __ZNKSt3__16vectorImNS_9allocatorImEEE7__allocB8ue170006Ev, symObjAddr: 0x5380, symBinAddr: 0x100006380, symSize: 0x20 }
  - { offsetInCU: 0x1530B, offset: 0x1530B, size: 0x8, addend: 0x0, symName: __ZNSt3__114numeric_limitsIlE3maxB8ue170006Ev, symObjAddr: 0x53A0, symBinAddr: 0x1000063A0, symSize: 0x10 }
  - { offsetInCU: 0x1531F, offset: 0x1531F, size: 0x8, addend: 0x0, symName: __ZNKSt3__16__lessIvvEclB8ue170006ImmEEbRKT_RKT0_, symObjAddr: 0x5400, symBinAddr: 0x100006400, symSize: 0x30 }
  - { offsetInCU: 0x15373, offset: 0x15373, size: 0x8, addend: 0x0, symName: __ZNKSt3__19allocatorImE8max_sizeB8ue170006Ev, symObjAddr: 0x5430, symBinAddr: 0x100006430, symSize: 0x20 }
  - { offsetInCU: 0x15399, offset: 0x15399, size: 0x8, addend: 0x0, symName: __ZNKSt3__117__compressed_pairIPmNS_9allocatorImEEE6secondB8ue170006Ev, symObjAddr: 0x5450, symBinAddr: 0x100006450, symSize: 0x20 }
  - { offsetInCU: 0x153BF, offset: 0x153BF, size: 0x8, addend: 0x0, symName: __ZNKSt3__122__compressed_pair_elemINS_9allocatorImEELi1ELb1EE5__getB8ue170006Ev, symObjAddr: 0x5470, symBinAddr: 0x100006470, symSize: 0x10 }
  - { offsetInCU: 0x153E5, offset: 0x153E5, size: 0x8, addend: 0x0, symName: __ZNSt3__123__libcpp_numeric_limitsIlLb1EE3maxB8ue170006Ev, symObjAddr: 0x5480, symBinAddr: 0x100006480, symSize: 0x10 }
  - { offsetInCU: 0x153F9, offset: 0x153F9, size: 0x8, addend: 0x0, symName: __ZNSt12length_errorC1B8ue170006EPKc, symObjAddr: 0x5500, symBinAddr: 0x100006500, symSize: 0x30 }
  - { offsetInCU: 0x15431, offset: 0x15431, size: 0x8, addend: 0x0, symName: __ZNSt12length_errorC2B8ue170006EPKc, symObjAddr: 0x5530, symBinAddr: 0x100006530, symSize: 0x40 }
  - { offsetInCU: 0x15469, offset: 0x15469, size: 0x8, addend: 0x0, symName: __ZNSt3__19allocatorImE8allocateB8ue170006Em, symObjAddr: 0x5570, symBinAddr: 0x100006570, symSize: 0x50 }
  - { offsetInCU: 0x1549D, offset: 0x1549D, size: 0x8, addend: 0x0, symName: __ZNSt3__117__compressed_pairIPmNS_9allocatorImEEE6secondB8ue170006Ev, symObjAddr: 0x5640, symBinAddr: 0x100006640, symSize: 0x20 }
  - { offsetInCU: 0x154C3, offset: 0x154C3, size: 0x8, addend: 0x0, symName: __ZNSt3__122__compressed_pair_elemINS_9allocatorImEELi1ELb1EE5__getB8ue170006Ev, symObjAddr: 0x5660, symBinAddr: 0x100006660, symSize: 0x10 }
  - { offsetInCU: 0x154E9, offset: 0x154E9, size: 0x8, addend: 0x0, symName: __ZNSt3__117__compressed_pairIPmNS_9allocatorImEEE5firstB8ue170006Ev, symObjAddr: 0x5670, symBinAddr: 0x100006670, symSize: 0x20 }
  - { offsetInCU: 0x1550F, offset: 0x1550F, size: 0x8, addend: 0x0, symName: __ZNSt3__122__compressed_pair_elemIPmLi0ELb0EE5__getB8ue170006Ev, symObjAddr: 0x5690, symBinAddr: 0x100006690, symSize: 0x10 }
  - { offsetInCU: 0x15535, offset: 0x15535, size: 0x8, addend: 0x0, symName: __ZNKSt3__16vectorImNS_9allocatorImEEE31__annotate_contiguous_containerB8ue170006EPKvS5_S5_S5_, symObjAddr: 0x56A0, symBinAddr: 0x1000066A0, symSize: 0x20 }
  - { offsetInCU: 0x15587, offset: 0x15587, size: 0x8, addend: 0x0, symName: __ZNKSt3__16vectorImNS_9allocatorImEEE4dataB8ue170006Ev, symObjAddr: 0x56C0, symBinAddr: 0x1000066C0, symSize: 0x20 }
  - { offsetInCU: 0x155AD, offset: 0x155AD, size: 0x8, addend: 0x0, symName: __ZNKSt3__16vectorImNS_9allocatorImEEE8capacityB8ue170006Ev, symObjAddr: 0x56E0, symBinAddr: 0x1000066E0, symSize: 0x30 }
  - { offsetInCU: 0x155D3, offset: 0x155D3, size: 0x8, addend: 0x0, symName: __ZNKSt3__16vectorImNS_9allocatorImEEE9__end_capB8ue170006Ev, symObjAddr: 0x5720, symBinAddr: 0x100006720, symSize: 0x20 }
  - { offsetInCU: 0x155F9, offset: 0x155F9, size: 0x8, addend: 0x0, symName: __ZNKSt3__117__compressed_pairIPmNS_9allocatorImEEE5firstB8ue170006Ev, symObjAddr: 0x5740, symBinAddr: 0x100006740, symSize: 0x20 }
  - { offsetInCU: 0x1561F, offset: 0x1561F, size: 0x8, addend: 0x0, symName: __ZNKSt3__122__compressed_pair_elemIPmLi0ELb0EE5__getB8ue170006Ev, symObjAddr: 0x5760, symBinAddr: 0x100006760, symSize: 0x10 }
  - { offsetInCU: 0x1565E, offset: 0x1565E, size: 0x8, addend: 0x0, symName: __ZNSt3__16vectorImNS_9allocatorImEEE21_ConstructTransactionC1B8ue170006ERS3_m, symObjAddr: 0x5770, symBinAddr: 0x100006770, symSize: 0x30 }
  - { offsetInCU: 0x156A6, offset: 0x156A6, size: 0x8, addend: 0x0, symName: __ZNSt3__116allocator_traitsINS_9allocatorImEEE9constructB8ue170006ImJEvEEvRS2_PT_DpOT0_, symObjAddr: 0x57A0, symBinAddr: 0x1000067A0, symSize: 0x30 }
  - { offsetInCU: 0x156E8, offset: 0x156E8, size: 0x8, addend: 0x0, symName: __ZNSt3__16vectorImNS_9allocatorImEEE21_ConstructTransactionD1B8ue170006Ev, symObjAddr: 0x57D0, symBinAddr: 0x1000067D0, symSize: 0x20 }
  - { offsetInCU: 0x15712, offset: 0x15712, size: 0x8, addend: 0x0, symName: __ZNSt3__16vectorImNS_9allocatorImEEE21_ConstructTransactionC2B8ue170006ERS3_m, symObjAddr: 0x57F0, symBinAddr: 0x1000067F0, symSize: 0x40 }
  - { offsetInCU: 0x1575A, offset: 0x1575A, size: 0x8, addend: 0x0, symName: __ZNSt3__19allocatorImE9constructB8ue170006ImJEEEvPT_DpOT0_, symObjAddr: 0x5830, symBinAddr: 0x100006830, symSize: 0x20 }
  - { offsetInCU: 0x1579C, offset: 0x1579C, size: 0x8, addend: 0x0, symName: __ZNSt3__16vectorImNS_9allocatorImEEE21_ConstructTransactionD2B8ue170006Ev, symObjAddr: 0x5850, symBinAddr: 0x100006850, symSize: 0x20 }
  - { offsetInCU: 0x157C6, offset: 0x157C6, size: 0x8, addend: 0x0, symName: __ZNSt3__128__exception_guard_exceptionsINS_6vectorImNS_9allocatorImEEE16__destroy_vectorEED2B8ue170006Ev, symObjAddr: 0x5870, symBinAddr: 0x100006870, symSize: 0x40 }
  - { offsetInCU: 0x157F0, offset: 0x157F0, size: 0x8, addend: 0x0, symName: __ZNSt3__16vectorImNS_9allocatorImEEE16__destroy_vectorclB8ue170006Ev, symObjAddr: 0x58B0, symBinAddr: 0x1000068B0, symSize: 0x80 }
  - { offsetInCU: 0x15816, offset: 0x15816, size: 0x8, addend: 0x0, symName: __ZNSt3__16vectorImNS_9allocatorImEEE7__clearB8ue170006Ev, symObjAddr: 0x5930, symBinAddr: 0x100006930, symSize: 0x20 }
  - { offsetInCU: 0x1583C, offset: 0x1583C, size: 0x8, addend: 0x0, symName: __ZNKSt3__16vectorImNS_9allocatorImEEE17__annotate_deleteB8ue170006Ev, symObjAddr: 0x5950, symBinAddr: 0x100006950, symSize: 0xB0 }
  - { offsetInCU: 0x15862, offset: 0x15862, size: 0x8, addend: 0x0, symName: __ZNSt3__116allocator_traitsINS_9allocatorImEEE10deallocateB8ue170006ERS2_Pmm, symObjAddr: 0x5A00, symBinAddr: 0x100006A00, symSize: 0x30 }
  - { offsetInCU: 0x158A4, offset: 0x158A4, size: 0x8, addend: 0x0, symName: __ZNSt3__16vectorImNS_9allocatorImEEE22__base_destruct_at_endB8ue170006EPm, symObjAddr: 0x5A30, symBinAddr: 0x100006A30, symSize: 0x80 }
  - { offsetInCU: 0x158E8, offset: 0x158E8, size: 0x8, addend: 0x0, symName: __ZNSt3__116allocator_traitsINS_9allocatorImEEE7destroyB8ue170006ImvEEvRS2_PT_, symObjAddr: 0x5AB0, symBinAddr: 0x100006AB0, symSize: 0x30 }
  - { offsetInCU: 0x15925, offset: 0x15925, size: 0x8, addend: 0x0, symName: __ZNSt3__19allocatorImE7destroyB8ue170006EPm, symObjAddr: 0x5AE0, symBinAddr: 0x100006AE0, symSize: 0x10 }
  - { offsetInCU: 0x15959, offset: 0x15959, size: 0x8, addend: 0x0, symName: __ZNKSt3__16vectorImNS_9allocatorImEEE4sizeB8ue170006Ev, symObjAddr: 0x5AF0, symBinAddr: 0x100006AF0, symSize: 0x20 }
  - { offsetInCU: 0x1597F, offset: 0x1597F, size: 0x8, addend: 0x0, symName: __ZNSt3__19allocatorImE10deallocateB8ue170006EPmm, symObjAddr: 0x5B10, symBinAddr: 0x100006B10, symSize: 0x40 }
  - { offsetInCU: 0x159C1, offset: 0x159C1, size: 0x8, addend: 0x0, symName: __ZNSt3__16vectorImNS_9allocatorImEEED2B8ue170006Ev, symObjAddr: 0x5BC0, symBinAddr: 0x100006BC0, symSize: 0x40 }
  - { offsetInCU: 0x159EB, offset: 0x159EB, size: 0x8, addend: 0x0, symName: __ZNSt3__16vectorImNS_9allocatorImEEE11__make_iterB8ue170006EPm, symObjAddr: 0x5C00, symBinAddr: 0x100006C00, symSize: 0x30 }
  - { offsetInCU: 0x15A20, offset: 0x15A20, size: 0x8, addend: 0x0, symName: __ZNSt3__111__wrap_iterIPmEC1B8ue170006ES1_, symObjAddr: 0x5C30, symBinAddr: 0x100006C30, symSize: 0x30 }
  - { offsetInCU: 0x15A58, offset: 0x15A58, size: 0x8, addend: 0x0, symName: __ZNSt3__111__wrap_iterIPmEC2B8ue170006ES1_, symObjAddr: 0x5C60, symBinAddr: 0x100006C60, symSize: 0x20 }
  - { offsetInCU: 0x15A90, offset: 0x15A90, size: 0x8, addend: 0x0, symName: __ZNKSt3__111__wrap_iterIPmEdeB8ue170006Ev, symObjAddr: 0x5CB0, symBinAddr: 0x100006CB0, symSize: 0x20 }
  - { offsetInCU: 0x15AB6, offset: 0x15AB6, size: 0x8, addend: 0x0, symName: __ZNSt3__111__wrap_iterIPmEppB8ue170006Ev, symObjAddr: 0x5CD0, symBinAddr: 0x100006CD0, symSize: 0x20 }
  - { offsetInCU: 0x15ADC, offset: 0x15ADC, size: 0x8, addend: 0x0, symName: __ZNKSt3__111__wrap_iterIPmE4baseB8ue170006Ev, symObjAddr: 0x5D30, symBinAddr: 0x100006D30, symSize: 0x20 }
  - { offsetInCU: 0x15B16, offset: 0x15B16, size: 0x8, addend: 0x0, symName: '__ZZ16compute_accuracyPdPbiiENK3$_0clEmm', symObjAddr: 0x6380, symBinAddr: 0x100007380, symSize: 0x40 }
  - { offsetInCU: 0x15B5C, offset: 0x15B5C, size: 0x8, addend: 0x0, symName: __ZNSt3__18_IterOpsINS_17_ClassicAlgPolicyEE9iter_swapB8ue170006IRPmS5_EEvOT_OT0_, symObjAddr: 0x63C0, symBinAddr: 0x1000073C0, symSize: 0x30 }
  - { offsetInCU: 0x15BA5, offset: 0x15BA5, size: 0x8, addend: 0x0, symName: __ZNSt3__18_IterOpsINS_17_ClassicAlgPolicyEE9iter_swapB8ue170006IRPmS4_EEvOT_OT0_, symObjAddr: 0x68F0, symBinAddr: 0x1000078F0, symSize: 0x30 }
  - { offsetInCU: 0x15BEE, offset: 0x15BEE, size: 0x8, addend: 0x0, symName: __ZNSt3__18_IterOpsINS_17_ClassicAlgPolicyEE11__iter_moveB8ue170006IRPmEENS_9enable_ifIXsr12is_referenceIDTdeclsr3stdE7declvalIRT_EEEEE5valueEDTclsr3stdE4movedeclsr3stdE7declvalIS8_EEEEE4typeEOS7_, symObjAddr: 0x74B0, symBinAddr: 0x1000084B0, symSize: 0x20 }
  - { offsetInCU: 0x15C1A, offset: 0x15C1A, size: 0x8, addend: 0x0, symName: __ZNSt3__18_IterOpsINS_17_ClassicAlgPolicyEE25__validate_iter_referenceB8ue170006IRPmEEvv, symObjAddr: 0x74D0, symBinAddr: 0x1000084D0, symSize: 0x10 }
  - { offsetInCU: 0x15C38, offset: 0x15C38, size: 0x8, addend: 0x0, symName: __ZNSt3__18_IterOpsINS_17_ClassicAlgPolicyEE4nextB8ue170006IPmEET_S5_S5_, symObjAddr: 0x74E0, symBinAddr: 0x1000084E0, symSize: 0x20 }
  - { offsetInCU: 0x15C6F, offset: 0x15C6F, size: 0x8, addend: 0x0, symName: __ZNSt3__18_IterOpsINS_17_ClassicAlgPolicyEE9iter_swapB8ue170006IPmS4_EEvOT_OT0_, symObjAddr: 0x8290, symBinAddr: 0x100009290, symSize: 0x30 }
  - { offsetInCU: 0x15CCC, offset: 0x15CCC, size: 0x8, addend: 0x0, symName: __ZNSt3__14pairIPmbEC1B8ue170006IRS1_RbLPv0EEEOT_OT0_, symObjAddr: 0x82E0, symBinAddr: 0x1000092E0, symSize: 0x30 }
  - { offsetInCU: 0x15D2A, offset: 0x15D2A, size: 0x8, addend: 0x0, symName: __ZNSt3__14pairIPmbEC2B8ue170006IRS1_RbLPv0EEEOT_OT0_, symObjAddr: 0x8310, symBinAddr: 0x100009310, symSize: 0x30 }
  - { offsetInCU: 0x15D88, offset: 0x15D88, size: 0x8, addend: 0x0, symName: __ZNSt3__118__unwrap_iter_implINS_11__wrap_iterIPmEELb1EE8__unwrapB8ue170006ES3_, symObjAddr: 0x8340, symBinAddr: 0x100009340, symSize: 0x20 }
  - { offsetInCU: 0x15DB5, offset: 0x15DB5, size: 0x8, addend: 0x0, symName: __ZNSt3__119__to_address_helperINS_11__wrap_iterIPmEEvE6__callB8ue170006ERKS3_, symObjAddr: 0x8380, symBinAddr: 0x100009380, symSize: 0x30 }
  - { offsetInCU: 0x15DD8, offset: 0x15DD8, size: 0x8, addend: 0x0, symName: __ZNSt3__114pointer_traitsINS_11__wrap_iterIPmEEE10to_addressB8ue170006ES3_, symObjAddr: 0x83B0, symBinAddr: 0x1000093B0, symSize: 0x30 }
  - { offsetInCU: 0x15E19, offset: 0x15E19, size: 0x8, addend: 0x0, symName: __ZNKSt3__113basic_ostreamIcNS_11char_traitsIcEEE6sentrycvbB8ue170006Ev, symObjAddr: 0x85D0, symBinAddr: 0x1000095D0, symSize: 0x20 }
  - { offsetInCU: 0x15E3F, offset: 0x15E3F, size: 0x8, addend: 0x0, symName: __ZNSt3__119ostreambuf_iteratorIcNS_11char_traitsIcEEEC1B8ue170006ERNS_13basic_ostreamIcS2_EE, symObjAddr: 0x8810, symBinAddr: 0x100009810, symSize: 0x30 }
  - { offsetInCU: 0x15E77, offset: 0x15E77, size: 0x8, addend: 0x0, symName: __ZNKSt3__18ios_base5flagsB8ue170006Ev, symObjAddr: 0x8840, symBinAddr: 0x100009840, symSize: 0x20 }
  - { offsetInCU: 0x15E9F, offset: 0x15E9F, size: 0x8, addend: 0x0, symName: __ZNKSt3__19basic_iosIcNS_11char_traitsIcEEE4fillB8ue170006Ev, symObjAddr: 0x8860, symBinAddr: 0x100009860, symSize: 0x70 }
  - { offsetInCU: 0x15EC7, offset: 0x15EC7, size: 0x8, addend: 0x0, symName: __ZNKSt3__119ostreambuf_iteratorIcNS_11char_traitsIcEEE6failedB8ue170006Ev, symObjAddr: 0x88D0, symBinAddr: 0x1000098D0, symSize: 0x20 }
  - { offsetInCU: 0x15EED, offset: 0x15EED, size: 0x8, addend: 0x0, symName: __ZNSt3__19basic_iosIcNS_11char_traitsIcEEE8setstateB8ue170006Ej, symObjAddr: 0x88F0, symBinAddr: 0x1000098F0, symSize: 0x30 }
  - { offsetInCU: 0x15F22, offset: 0x15F22, size: 0x8, addend: 0x0, symName: __ZNKSt3__18ios_base5widthB8ue170006Ev, symObjAddr: 0x8920, symBinAddr: 0x100009920, symSize: 0x20 }
  - { offsetInCU: 0x15F4A, offset: 0x15F4A, size: 0x8, addend: 0x0, symName: __ZNSt3__115basic_streambufIcNS_11char_traitsIcEEE5sputnB8ue170006EPKcl, symObjAddr: 0x8940, symBinAddr: 0x100009940, symSize: 0x30 }
  - { offsetInCU: 0x15F8C, offset: 0x15F8C, size: 0x8, addend: 0x0, symName: __ZNSt3__112basic_stringIcNS_11char_traitsIcEENS_9allocatorIcEEEC1B8ue170006Emc, symObjAddr: 0x8970, symBinAddr: 0x100009970, symSize: 0x30 }
  - { offsetInCU: 0x15FD4, offset: 0x15FD4, size: 0x8, addend: 0x0, symName: __ZNSt3__18ios_base5widthB8ue170006El, symObjAddr: 0x89A0, symBinAddr: 0x1000099A0, symSize: 0x30 }
  - { offsetInCU: 0x1601A, offset: 0x1601A, size: 0x8, addend: 0x0, symName: __ZNSt3__112basic_stringIcNS_11char_traitsIcEENS_9allocatorIcEEEC2B8ue170006Emc, symObjAddr: 0x89D0, symBinAddr: 0x1000099D0, symSize: 0x50 }
  - { offsetInCU: 0x16062, offset: 0x16062, size: 0x8, addend: 0x0, symName: __ZNSt3__119ostreambuf_iteratorIcNS_11char_traitsIcEEEC2B8ue170006ERNS_13basic_ostreamIcS2_EE, symObjAddr: 0x8A20, symBinAddr: 0x100009A20, symSize: 0x50 }
  - { offsetInCU: 0x1609A, offset: 0x1609A, size: 0x8, addend: 0x0, symName: __ZNKSt3__19basic_iosIcNS_11char_traitsIcEEE5rdbufB8ue170006Ev, symObjAddr: 0x8A70, symBinAddr: 0x100009A70, symSize: 0x20 }
  - { offsetInCU: 0x160C2, offset: 0x160C2, size: 0x8, addend: 0x0, symName: __ZNKSt3__18ios_base5rdbufB8ue170006Ev, symObjAddr: 0x8A90, symBinAddr: 0x100009A90, symSize: 0x20 }
  - { offsetInCU: 0x160E8, offset: 0x160E8, size: 0x8, addend: 0x0, symName: __ZNSt3__111char_traitsIcE11eq_int_typeB8ue170006Eii, symObjAddr: 0x8AB0, symBinAddr: 0x100009AB0, symSize: 0x20 }
  - { offsetInCU: 0x1611B, offset: 0x1611B, size: 0x8, addend: 0x0, symName: __ZNSt3__111char_traitsIcE3eofB8ue170006Ev, symObjAddr: 0x8AD0, symBinAddr: 0x100009AD0, symSize: 0x10 }
  - { offsetInCU: 0x1612F, offset: 0x1612F, size: 0x8, addend: 0x0, symName: __ZNKSt3__19basic_iosIcNS_11char_traitsIcEEE5widenB8ue170006Ec, symObjAddr: 0x8AE0, symBinAddr: 0x100009AE0, symSize: 0x80 }
  - { offsetInCU: 0x1619D, offset: 0x1619D, size: 0x8, addend: 0x0, symName: __ZNKSt3__15ctypeIcE5widenB8ue170006Ec, symObjAddr: 0x8B90, symBinAddr: 0x100009B90, symSize: 0x30 }
  - { offsetInCU: 0x161D2, offset: 0x161D2, size: 0x8, addend: 0x0, symName: __ZNSt3__18ios_base8setstateB8ue170006Ej, symObjAddr: 0x8BC0, symBinAddr: 0x100009BC0, symSize: 0x30 }
  - { offsetInCU: 0x16209, offset: 0x16209, size: 0x8, addend: 0x0, symName: __ZNSt3__16vectorIiNS_9allocatorIiEEEC2B8ue170006Ev, symObjAddr: 0x8BF0, symBinAddr: 0x100009BF0, symSize: 0x50 }
  - { offsetInCU: 0x16233, offset: 0x16233, size: 0x8, addend: 0x0, symName: __ZNSt3__117__compressed_pairIPiNS_9allocatorIiEEEC1B8ue170006IDnNS_18__default_init_tagEEEOT_OT0_, symObjAddr: 0x8C40, symBinAddr: 0x100009C40, symSize: 0x30 }
  - { offsetInCU: 0x1628B, offset: 0x1628B, size: 0x8, addend: 0x0, symName: __ZNSt3__117__compressed_pairIPiNS_9allocatorIiEEEC2B8ue170006IDnNS_18__default_init_tagEEEOT_OT0_, symObjAddr: 0x8C70, symBinAddr: 0x100009C70, symSize: 0x40 }
  - { offsetInCU: 0x162E3, offset: 0x162E3, size: 0x8, addend: 0x0, symName: __ZNSt3__122__compressed_pair_elemIPiLi0ELb0EEC2B8ue170006IDnvEEOT_, symObjAddr: 0x8CB0, symBinAddr: 0x100009CB0, symSize: 0x20 }
  - { offsetInCU: 0x16325, offset: 0x16325, size: 0x8, addend: 0x0, symName: __ZNSt3__122__compressed_pair_elemINS_9allocatorIiEELi1ELb1EEC2B8ue170006ENS_18__default_init_tagE, symObjAddr: 0x8CD0, symBinAddr: 0x100009CD0, symSize: 0x20 }
  - { offsetInCU: 0x1635A, offset: 0x1635A, size: 0x8, addend: 0x0, symName: __ZNSt3__19allocatorIiEC2B8ue170006Ev, symObjAddr: 0x8CF0, symBinAddr: 0x100009CF0, symSize: 0x20 }
  - { offsetInCU: 0x16384, offset: 0x16384, size: 0x8, addend: 0x0, symName: __ZNSt3__116__non_trivial_ifILb1ENS_9allocatorIiEEEC2B8ue170006Ev, symObjAddr: 0x8D10, symBinAddr: 0x100009D10, symSize: 0x10 }
  - { offsetInCU: 0x163AE, offset: 0x163AE, size: 0x8, addend: 0x0, symName: __ZNSt3__16vectorIiNS_9allocatorIiEEED2B8ue170006Ev, symObjAddr: 0x8D20, symBinAddr: 0x100009D20, symSize: 0x40 }
  - { offsetInCU: 0x163D8, offset: 0x163D8, size: 0x8, addend: 0x0, symName: __ZNSt3__16vectorIiNS_9allocatorIiEEE16__destroy_vectorC1B8ue170006ERS3_, symObjAddr: 0x8D60, symBinAddr: 0x100009D60, symSize: 0x30 }
  - { offsetInCU: 0x16411, offset: 0x16411, size: 0x8, addend: 0x0, symName: __ZNSt3__16vectorIiNS_9allocatorIiEEE16__destroy_vectorclB8ue170006Ev, symObjAddr: 0x8D90, symBinAddr: 0x100009D90, symSize: 0x80 }
  - { offsetInCU: 0x16437, offset: 0x16437, size: 0x8, addend: 0x0, symName: __ZNSt3__16vectorIiNS_9allocatorIiEEE16__destroy_vectorC2B8ue170006ERS3_, symObjAddr: 0x8E10, symBinAddr: 0x100009E10, symSize: 0x20 }
  - { offsetInCU: 0x16470, offset: 0x16470, size: 0x8, addend: 0x0, symName: __ZNSt3__16vectorIiNS_9allocatorIiEEE7__clearB8ue170006Ev, symObjAddr: 0x8E30, symBinAddr: 0x100009E30, symSize: 0x20 }
  - { offsetInCU: 0x16496, offset: 0x16496, size: 0x8, addend: 0x0, symName: __ZNKSt3__16vectorIiNS_9allocatorIiEEE17__annotate_deleteB8ue170006Ev, symObjAddr: 0x8E50, symBinAddr: 0x100009E50, symSize: 0xB0 }
  - { offsetInCU: 0x164BC, offset: 0x164BC, size: 0x8, addend: 0x0, symName: __ZNSt3__116allocator_traitsINS_9allocatorIiEEE10deallocateB8ue170006ERS2_Pim, symObjAddr: 0x8F00, symBinAddr: 0x100009F00, symSize: 0x30 }
  - { offsetInCU: 0x164FE, offset: 0x164FE, size: 0x8, addend: 0x0, symName: __ZNSt3__16vectorIiNS_9allocatorIiEEE7__allocB8ue170006Ev, symObjAddr: 0x8F30, symBinAddr: 0x100009F30, symSize: 0x20 }
  - { offsetInCU: 0x16524, offset: 0x16524, size: 0x8, addend: 0x0, symName: __ZNKSt3__16vectorIiNS_9allocatorIiEEE8capacityB8ue170006Ev, symObjAddr: 0x8F50, symBinAddr: 0x100009F50, symSize: 0x30 }
  - { offsetInCU: 0x1654A, offset: 0x1654A, size: 0x8, addend: 0x0, symName: __ZNSt3__16vectorIiNS_9allocatorIiEEE22__base_destruct_at_endB8ue170006EPi, symObjAddr: 0x8F80, symBinAddr: 0x100009F80, symSize: 0x80 }
  - { offsetInCU: 0x1658E, offset: 0x1658E, size: 0x8, addend: 0x0, symName: __ZNSt3__116allocator_traitsINS_9allocatorIiEEE7destroyB8ue170006IivEEvRS2_PT_, symObjAddr: 0x9000, symBinAddr: 0x10000A000, symSize: 0x30 }
  - { offsetInCU: 0x165CB, offset: 0x165CB, size: 0x8, addend: 0x0, symName: __ZNSt3__19allocatorIiE7destroyB8ue170006EPi, symObjAddr: 0x9040, symBinAddr: 0x10000A040, symSize: 0x10 }
  - { offsetInCU: 0x165FF, offset: 0x165FF, size: 0x8, addend: 0x0, symName: __ZNKSt3__16vectorIiNS_9allocatorIiEEE31__annotate_contiguous_containerB8ue170006EPKvS5_S5_S5_, symObjAddr: 0x9050, symBinAddr: 0x10000A050, symSize: 0x20 }
  - { offsetInCU: 0x16651, offset: 0x16651, size: 0x8, addend: 0x0, symName: __ZNKSt3__16vectorIiNS_9allocatorIiEEE4dataB8ue170006Ev, symObjAddr: 0x9070, symBinAddr: 0x10000A070, symSize: 0x20 }
  - { offsetInCU: 0x16677, offset: 0x16677, size: 0x8, addend: 0x0, symName: __ZNSt3__19allocatorIiE10deallocateB8ue170006EPim, symObjAddr: 0x9090, symBinAddr: 0x10000A090, symSize: 0x40 }
  - { offsetInCU: 0x166B9, offset: 0x166B9, size: 0x8, addend: 0x0, symName: __ZNSt3__117__compressed_pairIPiNS_9allocatorIiEEE6secondB8ue170006Ev, symObjAddr: 0x90D0, symBinAddr: 0x10000A0D0, symSize: 0x20 }
  - { offsetInCU: 0x166DF, offset: 0x166DF, size: 0x8, addend: 0x0, symName: __ZNSt3__122__compressed_pair_elemINS_9allocatorIiEELi1ELb1EE5__getB8ue170006Ev, symObjAddr: 0x90F0, symBinAddr: 0x10000A0F0, symSize: 0x10 }
  - { offsetInCU: 0x16705, offset: 0x16705, size: 0x8, addend: 0x0, symName: __ZNKSt3__16vectorIiNS_9allocatorIiEEE9__end_capB8ue170006Ev, symObjAddr: 0x9100, symBinAddr: 0x10000A100, symSize: 0x20 }
  - { offsetInCU: 0x1672B, offset: 0x1672B, size: 0x8, addend: 0x0, symName: __ZNKSt3__117__compressed_pairIPiNS_9allocatorIiEEE5firstB8ue170006Ev, symObjAddr: 0x9120, symBinAddr: 0x10000A120, symSize: 0x20 }
  - { offsetInCU: 0x16751, offset: 0x16751, size: 0x8, addend: 0x0, symName: __ZNKSt3__122__compressed_pair_elemIPiLi0ELb0EE5__getB8ue170006Ev, symObjAddr: 0x9140, symBinAddr: 0x10000A140, symSize: 0x10 }
  - { offsetInCU: 0x16777, offset: 0x16777, size: 0x8, addend: 0x0, symName: __ZNSt3__16vectorIiNS_9allocatorIiEEE9__end_capB8ue170006Ev, symObjAddr: 0x9150, symBinAddr: 0x10000A150, symSize: 0x20 }
  - { offsetInCU: 0x1679D, offset: 0x1679D, size: 0x8, addend: 0x0, symName: __ZNSt3__16vectorIiNS_9allocatorIiEEE22__construct_one_at_endB8ue170006IJRKiEEEvDpOT_, symObjAddr: 0x9170, symBinAddr: 0x10000A170, symSize: 0x90 }
  - { offsetInCU: 0x167EC, offset: 0x167EC, size: 0x8, addend: 0x0, symName: __ZNSt3__16vectorIiNS_9allocatorIiEEE21__push_back_slow_pathIRKiEEvOT_, symObjAddr: 0x9200, symBinAddr: 0x10000A200, symSize: 0xD0 }
  - { offsetInCU: 0x1684A, offset: 0x1684A, size: 0x8, addend: 0x0, symName: __ZNSt3__117__compressed_pairIPiNS_9allocatorIiEEE5firstB8ue170006Ev, symObjAddr: 0x92D0, symBinAddr: 0x10000A2D0, symSize: 0x20 }
  - { offsetInCU: 0x16870, offset: 0x16870, size: 0x8, addend: 0x0, symName: __ZNSt3__122__compressed_pair_elemIPiLi0ELb0EE5__getB8ue170006Ev, symObjAddr: 0x92F0, symBinAddr: 0x10000A2F0, symSize: 0x10 }
  - { offsetInCU: 0x168AF, offset: 0x168AF, size: 0x8, addend: 0x0, symName: __ZNSt3__16vectorIiNS_9allocatorIiEEE21_ConstructTransactionC1B8ue170006ERS3_m, symObjAddr: 0x9300, symBinAddr: 0x10000A300, symSize: 0x30 }
  - { offsetInCU: 0x168F7, offset: 0x168F7, size: 0x8, addend: 0x0, symName: __ZNSt3__116allocator_traitsINS_9allocatorIiEEE9constructB8ue170006IiJRKiEvEEvRS2_PT_DpOT0_, symObjAddr: 0x9330, symBinAddr: 0x10000A330, symSize: 0x30 }
  - { offsetInCU: 0x1694E, offset: 0x1694E, size: 0x8, addend: 0x0, symName: __ZNSt3__16vectorIiNS_9allocatorIiEEE21_ConstructTransactionD1B8ue170006Ev, symObjAddr: 0x9360, symBinAddr: 0x10000A360, symSize: 0x20 }
  - { offsetInCU: 0x16978, offset: 0x16978, size: 0x8, addend: 0x0, symName: __ZNSt3__16vectorIiNS_9allocatorIiEEE21_ConstructTransactionC2B8ue170006ERS3_m, symObjAddr: 0x9380, symBinAddr: 0x10000A380, symSize: 0x40 }
  - { offsetInCU: 0x169C0, offset: 0x169C0, size: 0x8, addend: 0x0, symName: __ZNSt3__19allocatorIiE9constructB8ue170006IiJRKiEEEvPT_DpOT0_, symObjAddr: 0x93C0, symBinAddr: 0x10000A3C0, symSize: 0x20 }
  - { offsetInCU: 0x16A16, offset: 0x16A16, size: 0x8, addend: 0x0, symName: __ZNSt3__16vectorIiNS_9allocatorIiEEE21_ConstructTransactionD2B8ue170006Ev, symObjAddr: 0x93E0, symBinAddr: 0x10000A3E0, symSize: 0x20 }
  - { offsetInCU: 0x16A40, offset: 0x16A40, size: 0x8, addend: 0x0, symName: __ZNKSt3__16vectorIiNS_9allocatorIiEEE11__recommendB8ue170006Em, symObjAddr: 0x9400, symBinAddr: 0x10000A400, symSize: 0xA0 }
  - { offsetInCU: 0x16A95, offset: 0x16A95, size: 0x8, addend: 0x0, symName: __ZNSt3__114__split_bufferIiRNS_9allocatorIiEEEC1EmmS3_, symObjAddr: 0x94A0, symBinAddr: 0x10000A4A0, symSize: 0x40 }
  - { offsetInCU: 0x16AEB, offset: 0x16AEB, size: 0x8, addend: 0x0, symName: __ZNSt3__114__split_bufferIiRNS_9allocatorIiEEED1Ev, symObjAddr: 0x9600, symBinAddr: 0x10000A600, symSize: 0x20 }
  - { offsetInCU: 0x16B17, offset: 0x16B17, size: 0x8, addend: 0x0, symName: __ZNKSt3__16vectorIiNS_9allocatorIiEEE8max_sizeEv, symObjAddr: 0x9620, symBinAddr: 0x10000A620, symSize: 0x60 }
  - { offsetInCU: 0x16B3F, offset: 0x16B3F, size: 0x8, addend: 0x0, symName: __ZNKSt3__16vectorIiNS_9allocatorIiEEE20__throw_length_errorB8ue170006Ev, symObjAddr: 0x9680, symBinAddr: 0x10000A680, symSize: 0x20 }
  - { offsetInCU: 0x16B6F, offset: 0x16B6F, size: 0x8, addend: 0x0, symName: __ZNSt3__116allocator_traitsINS_9allocatorIiEEE8max_sizeB8ue170006IS2_vEEmRKS2_, symObjAddr: 0x96D0, symBinAddr: 0x10000A6D0, symSize: 0x20 }
  - { offsetInCU: 0x16B9D, offset: 0x16B9D, size: 0x8, addend: 0x0, symName: __ZNKSt3__16vectorIiNS_9allocatorIiEEE7__allocB8ue170006Ev, symObjAddr: 0x96F0, symBinAddr: 0x10000A6F0, symSize: 0x20 }
  - { offsetInCU: 0x16BC3, offset: 0x16BC3, size: 0x8, addend: 0x0, symName: __ZNKSt3__19allocatorIiE8max_sizeB8ue170006Ev, symObjAddr: 0x9710, symBinAddr: 0x10000A710, symSize: 0x20 }
  - { offsetInCU: 0x16BE9, offset: 0x16BE9, size: 0x8, addend: 0x0, symName: __ZNKSt3__117__compressed_pairIPiNS_9allocatorIiEEE6secondB8ue170006Ev, symObjAddr: 0x9730, symBinAddr: 0x10000A730, symSize: 0x20 }
  - { offsetInCU: 0x16C0F, offset: 0x16C0F, size: 0x8, addend: 0x0, symName: __ZNKSt3__122__compressed_pair_elemINS_9allocatorIiEELi1ELb1EE5__getB8ue170006Ev, symObjAddr: 0x9750, symBinAddr: 0x10000A750, symSize: 0x10 }
  - { offsetInCU: 0x16C35, offset: 0x16C35, size: 0x8, addend: 0x0, symName: __ZNSt3__114__split_bufferIiRNS_9allocatorIiEEEC2EmmS3_, symObjAddr: 0x97B0, symBinAddr: 0x10000A7B0, symSize: 0xD0 }
  - { offsetInCU: 0x16CA8, offset: 0x16CA8, size: 0x8, addend: 0x0, symName: __ZNSt3__117__compressed_pairIPiRNS_9allocatorIiEEEC1B8ue170006IDnS4_EEOT_OT0_, symObjAddr: 0x9880, symBinAddr: 0x10000A880, symSize: 0x30 }
  - { offsetInCU: 0x16D00, offset: 0x16D00, size: 0x8, addend: 0x0, symName: __ZNSt3__114__split_bufferIiRNS_9allocatorIiEEE7__allocB8ue170006Ev, symObjAddr: 0x98F0, symBinAddr: 0x10000A8F0, symSize: 0x20 }
  - { offsetInCU: 0x16D26, offset: 0x16D26, size: 0x8, addend: 0x0, symName: __ZNSt3__114__split_bufferIiRNS_9allocatorIiEEE9__end_capB8ue170006Ev, symObjAddr: 0x9910, symBinAddr: 0x10000A910, symSize: 0x20 }
  - { offsetInCU: 0x16D4C, offset: 0x16D4C, size: 0x8, addend: 0x0, symName: __ZNSt3__117__compressed_pairIPiRNS_9allocatorIiEEEC2B8ue170006IDnS4_EEOT_OT0_, symObjAddr: 0x9930, symBinAddr: 0x10000A930, symSize: 0x40 }
  - { offsetInCU: 0x16DA4, offset: 0x16DA4, size: 0x8, addend: 0x0, symName: __ZNSt3__122__compressed_pair_elemIRNS_9allocatorIiEELi1ELb0EEC2B8ue170006IS3_vEEOT_, symObjAddr: 0x9970, symBinAddr: 0x10000A970, symSize: 0x20 }
  - { offsetInCU: 0x16DE6, offset: 0x16DE6, size: 0x8, addend: 0x0, symName: __ZNSt3__19allocatorIiE8allocateB8ue170006Em, symObjAddr: 0x9990, symBinAddr: 0x10000A990, symSize: 0x50 }
  - { offsetInCU: 0x16E1A, offset: 0x16E1A, size: 0x8, addend: 0x0, symName: __ZNSt3__117__compressed_pairIPiRNS_9allocatorIiEEE6secondB8ue170006Ev, symObjAddr: 0x99E0, symBinAddr: 0x10000A9E0, symSize: 0x20 }
  - { offsetInCU: 0x16E40, offset: 0x16E40, size: 0x8, addend: 0x0, symName: __ZNSt3__122__compressed_pair_elemIRNS_9allocatorIiEELi1ELb0EE5__getB8ue170006Ev, symObjAddr: 0x9A00, symBinAddr: 0x10000AA00, symSize: 0x20 }
  - { offsetInCU: 0x16E66, offset: 0x16E66, size: 0x8, addend: 0x0, symName: __ZNSt3__117__compressed_pairIPiRNS_9allocatorIiEEE5firstB8ue170006Ev, symObjAddr: 0x9A20, symBinAddr: 0x10000AA20, symSize: 0x20 }
  - { offsetInCU: 0x16E8C, offset: 0x16E8C, size: 0x8, addend: 0x0, symName: __ZNSt3__116reverse_iteratorIPiEC1B8ue170006ES1_, symObjAddr: 0x9AB0, symBinAddr: 0x10000AAB0, symSize: 0x30 }
  - { offsetInCU: 0x16EC4, offset: 0x16EC4, size: 0x8, addend: 0x0, symName: __ZNKSt3__116reverse_iteratorIPiE4baseB8ue170006Ev, symObjAddr: 0x9AE0, symBinAddr: 0x10000AAE0, symSize: 0x20 }
  - { offsetInCU: 0x16EEA, offset: 0x16EEA, size: 0x8, addend: 0x0, symName: __ZNKSt3__16vectorIiNS_9allocatorIiEEE14__annotate_newB8ue170006Em, symObjAddr: 0x9B40, symBinAddr: 0x10000AB40, symSize: 0xB0 }
  - { offsetInCU: 0x16F43, offset: 0x16F43, size: 0x8, addend: 0x0, symName: __ZNKSt3__111__move_loopINS_17_ClassicAlgPolicyEEclB8ue170006INS_16reverse_iteratorIPiEES6_S6_EENS_4pairIT_T1_EES8_T0_S9_, symObjAddr: 0xA030, symBinAddr: 0x10000B030, symSize: 0xA0 }
  - { offsetInCU: 0x16FB4, offset: 0x16FB4, size: 0x8, addend: 0x0, symName: __ZNSt3__18_IterOpsINS_17_ClassicAlgPolicyEE11__iter_moveB8ue170006IRNS_16reverse_iteratorIPiEEEENS_9enable_ifIXsr12is_referenceIDTdeclsr3stdE7declvalIRT_EEEEE5valueEDTclsr3stdE4movedeclsr3stdE7declvalISA_EEEEE4typeEOS9_, symObjAddr: 0xA250, symBinAddr: 0x10000B250, symSize: 0x20 }
  - { offsetInCU: 0x16FE0, offset: 0x16FE0, size: 0x8, addend: 0x0, symName: __ZNKSt3__116reverse_iteratorIPiEdeB8ue170006Ev, symObjAddr: 0xA270, symBinAddr: 0x10000B270, symSize: 0x30 }
  - { offsetInCU: 0x17014, offset: 0x17014, size: 0x8, addend: 0x0, symName: __ZNSt3__116reverse_iteratorIPiEppB8ue170006Ev, symObjAddr: 0xA2A0, symBinAddr: 0x10000B2A0, symSize: 0x20 }
  - { offsetInCU: 0x1703A, offset: 0x1703A, size: 0x8, addend: 0x0, symName: __ZNSt3__18_IterOpsINS_17_ClassicAlgPolicyEE25__validate_iter_referenceB8ue170006IRNS_16reverse_iteratorIPiEEEEvv, symObjAddr: 0xA2C0, symBinAddr: 0x10000B2C0, symSize: 0x10 }
  - { offsetInCU: 0x17058, offset: 0x17058, size: 0x8, addend: 0x0, symName: __ZNSt3__118__unwrap_iter_implINS_16reverse_iteratorIPiEELb0EE8__unwrapB8ue170006ES3_, symObjAddr: 0xA2D0, symBinAddr: 0x10000B2D0, symSize: 0x20 }
  - { offsetInCU: 0x17081, offset: 0x17081, size: 0x8, addend: 0x0, symName: __ZNSt3__14pairINS_16reverse_iteratorIPiEES3_EC1B8ue170006IS3_S3_LPv0EEEOT_OT0_, symObjAddr: 0xA2F0, symBinAddr: 0x10000B2F0, symSize: 0x30 }
  - { offsetInCU: 0x170DF, offset: 0x170DF, size: 0x8, addend: 0x0, symName: __ZNSt3__14pairINS_16reverse_iteratorIPiEES3_EC2B8ue170006IS3_S3_LPv0EEEOT_OT0_, symObjAddr: 0xA320, symBinAddr: 0x10000B320, symSize: 0x40 }
  - { offsetInCU: 0x1713D, offset: 0x1713D, size: 0x8, addend: 0x0, symName: __ZNSt3__118__unwrap_iter_implINS_16reverse_iteratorIPiEELb0EE8__rewrapB8ue170006ES3_S3_, symObjAddr: 0xA360, symBinAddr: 0x10000B360, symSize: 0x30 }
  - { offsetInCU: 0x1716B, offset: 0x1716B, size: 0x8, addend: 0x0, symName: __ZNSt3__116reverse_iteratorIPiEC2B8ue170006ES1_, symObjAddr: 0xA390, symBinAddr: 0x10000B390, symSize: 0x30 }
  - { offsetInCU: 0x171A3, offset: 0x171A3, size: 0x8, addend: 0x0, symName: __ZNSt3__114__split_bufferIiRNS_9allocatorIiEEED2Ev, symObjAddr: 0xA3C0, symBinAddr: 0x10000B3C0, symSize: 0x70 }
  - { offsetInCU: 0x171CF, offset: 0x171CF, size: 0x8, addend: 0x0, symName: __ZNSt3__114__split_bufferIiRNS_9allocatorIiEEE5clearB8ue170006Ev, symObjAddr: 0xA430, symBinAddr: 0x10000B430, symSize: 0x20 }
  - { offsetInCU: 0x171F5, offset: 0x171F5, size: 0x8, addend: 0x0, symName: __ZNKSt3__114__split_bufferIiRNS_9allocatorIiEEE8capacityB8ue170006Ev, symObjAddr: 0xA450, symBinAddr: 0x10000B450, symSize: 0x30 }
  - { offsetInCU: 0x1721B, offset: 0x1721B, size: 0x8, addend: 0x0, symName: __ZNSt3__114__split_bufferIiRNS_9allocatorIiEEE17__destruct_at_endB8ue170006EPi, symObjAddr: 0xA480, symBinAddr: 0x10000B480, symSize: 0x30 }
  - { offsetInCU: 0x1724F, offset: 0x1724F, size: 0x8, addend: 0x0, symName: __ZNSt3__114__split_bufferIiRNS_9allocatorIiEEE17__destruct_at_endB8ue170006EPiNS_17integral_constantIbLb0EEE, symObjAddr: 0xA4B0, symBinAddr: 0x10000B4B0, symSize: 0x80 }
  - { offsetInCU: 0x17290, offset: 0x17290, size: 0x8, addend: 0x0, symName: __ZNKSt3__114__split_bufferIiRNS_9allocatorIiEEE9__end_capB8ue170006Ev, symObjAddr: 0xA530, symBinAddr: 0x10000B530, symSize: 0x20 }
  - { offsetInCU: 0x172B6, offset: 0x172B6, size: 0x8, addend: 0x0, symName: __ZNKSt3__117__compressed_pairIPiRNS_9allocatorIiEEE5firstB8ue170006Ev, symObjAddr: 0xA550, symBinAddr: 0x10000B550, symSize: 0x20 }
  - { offsetInCU: 0x172DC, offset: 0x172DC, size: 0x8, addend: 0x0, symName: __ZNSt3__16vectorIiNS_9allocatorIiEEE11__make_iterB8ue170006EPi, symObjAddr: 0xA570, symBinAddr: 0x10000B570, symSize: 0x30 }
  - { offsetInCU: 0x17311, offset: 0x17311, size: 0x8, addend: 0x0, symName: __ZNSt3__111__wrap_iterIPiEC1B8ue170006ES1_, symObjAddr: 0xA5A0, symBinAddr: 0x10000B5A0, symSize: 0x30 }
  - { offsetInCU: 0x17349, offset: 0x17349, size: 0x8, addend: 0x0, symName: __ZNSt3__111__wrap_iterIPiEC2B8ue170006ES1_, symObjAddr: 0xA5D0, symBinAddr: 0x10000B5D0, symSize: 0x20 }
  - { offsetInCU: 0x17381, offset: 0x17381, size: 0x8, addend: 0x0, symName: __ZNSt3__118__unwrap_iter_implINS_11__wrap_iterIPiEELb1EE8__rewrapB8ue170006ES3_S2_, symObjAddr: 0xA6E0, symBinAddr: 0x10000B6E0, symSize: 0x50 }
  - { offsetInCU: 0x173B2, offset: 0x173B2, size: 0x8, addend: 0x0, symName: __ZNKSt3__111__wrap_iterIPiEplB8ue170006El, symObjAddr: 0xA730, symBinAddr: 0x10000B730, symSize: 0x40 }
  - { offsetInCU: 0x173F4, offset: 0x173F4, size: 0x8, addend: 0x0, symName: __ZNSt3__111__wrap_iterIPiEpLB8ue170006El, symObjAddr: 0xA790, symBinAddr: 0x10000B790, symSize: 0x20 }
  - { offsetInCU: 0x17432, offset: 0x17432, size: 0x8, addend: 0x0, symName: __ZNSt3__119__to_address_helperINS_11__wrap_iterIPiEEvE6__callB8ue170006ERKS3_, symObjAddr: 0xA7B0, symBinAddr: 0x10000B7B0, symSize: 0x30 }
  - { offsetInCU: 0x17455, offset: 0x17455, size: 0x8, addend: 0x0, symName: __ZNSt3__114pointer_traitsINS_11__wrap_iterIPiEEE10to_addressB8ue170006ES3_, symObjAddr: 0xA7E0, symBinAddr: 0x10000B7E0, symSize: 0x30 }
  - { offsetInCU: 0x17482, offset: 0x17482, size: 0x8, addend: 0x0, symName: __ZNKSt3__110__identityclB8ue170006IRiEEOT_S4_, symObjAddr: 0xA840, symBinAddr: 0x10000B840, symSize: 0x20 }
  - { offsetInCU: 0x174BF, offset: 0x174BF, size: 0x8, addend: 0x0, symName: __ZNSt3__118__unwrap_iter_implINS_11__wrap_iterIPiEELb1EE8__unwrapB8ue170006ES3_, symObjAddr: 0xA860, symBinAddr: 0x10000B860, symSize: 0x20 }
  - { offsetInCU: 0x174E2, offset: 0x174E2, size: 0x8, addend: 0x0, symName: __ZNSt3__19basic_iosIcNS_11char_traitsIcEEEC2B8ue170006Ev, symObjAddr: 0xA9D0, symBinAddr: 0x10000B9D0, symSize: 0x40 }
  - { offsetInCU: 0x1750C, offset: 0x1750C, size: 0x8, addend: 0x0, symName: __ZNSt3__113basic_istreamIcNS_11char_traitsIcEEEC2B8ue170006EPNS_15basic_streambufIcS2_EE, symObjAddr: 0xAA10, symBinAddr: 0x10000BA10, symSize: 0x50 }
  - { offsetInCU: 0x17551, offset: 0x17551, size: 0x8, addend: 0x0, symName: __ZNSt3__18ios_baseC2B8ue170006Ev, symObjAddr: 0xAA60, symBinAddr: 0x10000BA60, symSize: 0x20 }
  - { offsetInCU: 0x1757B, offset: 0x1757B, size: 0x8, addend: 0x0, symName: __ZNSt3__19basic_iosIcNS_11char_traitsIcEEE4initB8ue170006EPNS_15basic_streambufIcS2_EE, symObjAddr: 0xAA80, symBinAddr: 0x10000BA80, symSize: 0x50 }
  - { offsetInCU: 0x175D0, offset: 0x175D0, size: 0x8, addend: 0x0, symName: __ZNKSt3__113basic_istreamIcNS_11char_traitsIcEEE6sentrycvbB8ue170006Ev, symObjAddr: 0xACF0, symBinAddr: 0x10000BCF0, symSize: 0x20 }
  - { offsetInCU: 0x175F6, offset: 0x175F6, size: 0x8, addend: 0x0, symName: __ZNSt3__112basic_stringIcNS_11char_traitsIcEENS_9allocatorIcEEE5clearB8ue170006Ev, symObjAddr: 0xAD10, symBinAddr: 0x10000BD10, symSize: 0x80 }
  - { offsetInCU: 0x1761E, offset: 0x1761E, size: 0x8, addend: 0x0, symName: __ZNSt3__115basic_streambufIcNS_11char_traitsIcEEE6sbumpcB8ue170006Ev, symObjAddr: 0xAD90, symBinAddr: 0x10000BD90, symSize: 0x60 }
  - { offsetInCU: 0x17644, offset: 0x17644, size: 0x8, addend: 0x0, symName: __ZNSt3__111char_traitsIcE12to_char_typeB8ue170006Ei, symObjAddr: 0xADF0, symBinAddr: 0x10000BDF0, symSize: 0x10 }
  - { offsetInCU: 0x17667, offset: 0x17667, size: 0x8, addend: 0x0, symName: __ZNSt3__111char_traitsIcE2eqEcc, symObjAddr: 0xAE00, symBinAddr: 0x10000BE00, symSize: 0x30 }
  - { offsetInCU: 0x17698, offset: 0x17698, size: 0x8, addend: 0x0, symName: __ZNKSt3__112basic_stringIcNS_11char_traitsIcEENS_9allocatorIcEEE4sizeB8ue170006Ev, symObjAddr: 0xAE30, symBinAddr: 0x10000BE30, symSize: 0x50 }
  - { offsetInCU: 0x176BE, offset: 0x176BE, size: 0x8, addend: 0x0, symName: __ZNKSt3__112basic_stringIcNS_11char_traitsIcEENS_9allocatorIcEEE8max_sizeB8ue170006Ev, symObjAddr: 0xAE80, symBinAddr: 0x10000BE80, symSize: 0xA0 }
  - { offsetInCU: 0x17710, offset: 0x17710, size: 0x8, addend: 0x0, symName: __ZNSt3__18ios_base18__setstate_nothrowB8ue170006Ej, symObjAddr: 0xAF20, symBinAddr: 0x10000BF20, symSize: 0x50 }
  - { offsetInCU: 0x17745, offset: 0x17745, size: 0x8, addend: 0x0, symName: __ZNKSt3__19basic_iosIcNS_11char_traitsIcEEE10exceptionsB8ue170006Ev, symObjAddr: 0xAF70, symBinAddr: 0x10000BF70, symSize: 0x20 }
  - { offsetInCU: 0x1776B, offset: 0x1776B, size: 0x8, addend: 0x0, symName: __ZNSt3__111char_traitsIcE6assignB8ue170006ERcRKc, symObjAddr: 0xAF90, symBinAddr: 0x10000BF90, symSize: 0x20 }
  - { offsetInCU: 0x1779C, offset: 0x1779C, size: 0x8, addend: 0x0, symName: __ZNSt3__112basic_stringIcNS_11char_traitsIcEENS_9allocatorIcEEE18__get_long_pointerB8ue170006Ev, symObjAddr: 0xAFB0, symBinAddr: 0x10000BFB0, symSize: 0x20 }
  - { offsetInCU: 0x177C2, offset: 0x177C2, size: 0x8, addend: 0x0, symName: __ZNSt3__112basic_stringIcNS_11char_traitsIcEENS_9allocatorIcEEE15__set_long_sizeB8ue170006Em, symObjAddr: 0xAFD0, symBinAddr: 0x10000BFD0, symSize: 0x30 }
  - { offsetInCU: 0x177F7, offset: 0x177F7, size: 0x8, addend: 0x0, symName: __ZNSt3__112basic_stringIcNS_11char_traitsIcEENS_9allocatorIcEEE19__get_short_pointerB8ue170006Ev, symObjAddr: 0xB000, symBinAddr: 0x10000C000, symSize: 0x30 }
  - { offsetInCU: 0x1781D, offset: 0x1781D, size: 0x8, addend: 0x0, symName: __ZNSt3__112basic_stringIcNS_11char_traitsIcEENS_9allocatorIcEEE16__set_short_sizeB8ue170006Em, symObjAddr: 0xB030, symBinAddr: 0x10000C030, symSize: 0x50 }
  - { offsetInCU: 0x17852, offset: 0x17852, size: 0x8, addend: 0x0, symName: __ZNSt3__114pointer_traitsIPcE10pointer_toB8ue170006ERc, symObjAddr: 0xB080, symBinAddr: 0x10000C080, symSize: 0x10 }
  - { offsetInCU: 0x17875, offset: 0x17875, size: 0x8, addend: 0x0, symName: __ZNSt3__111char_traitsIcE11to_int_typeB8ue170006Ec, symObjAddr: 0xB090, symBinAddr: 0x10000C090, symSize: 0x10 }
  - { offsetInCU: 0x17899, offset: 0x17899, size: 0x8, addend: 0x0, symName: __ZNKSt3__112basic_stringIcNS_11char_traitsIcEENS_9allocatorIcEEE15__get_long_sizeB8ue170006Ev, symObjAddr: 0xB0A0, symBinAddr: 0x10000C0A0, symSize: 0x20 }
  - { offsetInCU: 0x178BF, offset: 0x178BF, size: 0x8, addend: 0x0, symName: __ZNKSt3__112basic_stringIcNS_11char_traitsIcEENS_9allocatorIcEEE16__get_short_sizeB8ue170006Ev, symObjAddr: 0xB0C0, symBinAddr: 0x10000C0C0, symSize: 0x30 }
  - { offsetInCU: 0x178EF, offset: 0x178EF, size: 0x8, addend: 0x0, symName: __ZNSt3__116allocator_traitsINS_9allocatorIcEEE8max_sizeB8ue170006IS2_vEEmRKS2_, symObjAddr: 0xB0F0, symBinAddr: 0x10000C0F0, symSize: 0x20 }
  - { offsetInCU: 0x1791D, offset: 0x1791D, size: 0x8, addend: 0x0, symName: __ZNKSt3__112basic_stringIcNS_11char_traitsIcEENS_9allocatorIcEEE7__allocB8ue170006Ev, symObjAddr: 0xB110, symBinAddr: 0x10000C110, symSize: 0x20 }
  - { offsetInCU: 0x17943, offset: 0x17943, size: 0x8, addend: 0x0, symName: __ZNSt3__114numeric_limitsImE3maxB8ue170006Ev, symObjAddr: 0xB130, symBinAddr: 0x10000C130, symSize: 0x10 }
  - { offsetInCU: 0x17957, offset: 0x17957, size: 0x8, addend: 0x0, symName: __ZNKSt3__19allocatorIcE8max_sizeB8ue170006Ev, symObjAddr: 0xB140, symBinAddr: 0x10000C140, symSize: 0x20 }
  - { offsetInCU: 0x1797D, offset: 0x1797D, size: 0x8, addend: 0x0, symName: __ZNKSt3__117__compressed_pairINS_12basic_stringIcNS_11char_traitsIcEENS_9allocatorIcEEE5__repES5_E6secondB8ue170006Ev, symObjAddr: 0xB160, symBinAddr: 0x10000C160, symSize: 0x20 }
  - { offsetInCU: 0x179A3, offset: 0x179A3, size: 0x8, addend: 0x0, symName: __ZNKSt3__122__compressed_pair_elemINS_9allocatorIcEELi1ELb1EE5__getB8ue170006Ev, symObjAddr: 0xB180, symBinAddr: 0x10000C180, symSize: 0x10 }
  - { offsetInCU: 0x179C9, offset: 0x179C9, size: 0x8, addend: 0x0, symName: __ZNSt3__123__libcpp_numeric_limitsImLb1EE3maxB8ue170006Ev, symObjAddr: 0xB190, symBinAddr: 0x10000C190, symSize: 0x10 }
  - { offsetInCU: 0x179DD, offset: 0x179DD, size: 0x8, addend: 0x0, symName: __ZNKSt3__18ios_base10exceptionsB8ue170006Ev, symObjAddr: 0xB1A0, symBinAddr: 0x10000C1A0, symSize: 0x20 }
  - { offsetInCU: 0x17A05, offset: 0x17A05, size: 0x8, addend: 0x0, symName: __ZNKSt3__19basic_iosIcNS_11char_traitsIcEEE4failB8ue170006Ev, symObjAddr: 0xB1C0, symBinAddr: 0x10000C1C0, symSize: 0x20 }
  - { offsetInCU: 0x17A2B, offset: 0x17A2B, size: 0x8, addend: 0x0, symName: __ZNKSt3__18ios_base4failB8ue170006Ev, symObjAddr: 0xB1E0, symBinAddr: 0x10000C1E0, symSize: 0x20 }
  - { offsetInCU: 0x17A53, offset: 0x17A53, size: 0x8, addend: 0x0, symName: __ZNSt3__111char_traitsIcE4findB8ue170006EPKcmRS2_, symObjAddr: 0xB3D0, symBinAddr: 0x10000C3D0, symSize: 0x70 }
  - { offsetInCU: 0x17A92, offset: 0x17A92, size: 0x8, addend: 0x0, symName: __ZNSt3__111char_traitsIcE7compareB8ue170006EPKcS3_m, symObjAddr: 0xB440, symBinAddr: 0x10000C440, symSize: 0x30 }
  - { offsetInCU: 0x17AD1, offset: 0x17AD1, size: 0x8, addend: 0x0, symName: __ZNSt3__19allocatorIcEC1B8ue170006Ev, symObjAddr: 0xB4B0, symBinAddr: 0x10000C4B0, symSize: 0x20 }
  - { offsetInCU: 0x17AFB, offset: 0x17AFB, size: 0x8, addend: 0x0, symName: __ZNSt3__16vectorIiNS_9allocatorIiEEE22__construct_one_at_endB8ue170006IJiEEEvDpOT_, symObjAddr: 0xB4D0, symBinAddr: 0x10000C4D0, symSize: 0x90 }
  - { offsetInCU: 0x17B4A, offset: 0x17B4A, size: 0x8, addend: 0x0, symName: __ZNSt3__16vectorIiNS_9allocatorIiEEE21__push_back_slow_pathIiEEvOT_, symObjAddr: 0xB560, symBinAddr: 0x10000C560, symSize: 0xD0 }
  - { offsetInCU: 0x17BA8, offset: 0x17BA8, size: 0x8, addend: 0x0, symName: __ZNSt3__116allocator_traitsINS_9allocatorIiEEE9constructB8ue170006IiJiEvEEvRS2_PT_DpOT0_, symObjAddr: 0xB630, symBinAddr: 0x10000C630, symSize: 0x30 }
  - { offsetInCU: 0x17BFF, offset: 0x17BFF, size: 0x8, addend: 0x0, symName: __ZNSt3__19allocatorIiE9constructB8ue170006IiJiEEEvPT_DpOT0_, symObjAddr: 0xB660, symBinAddr: 0x10000C660, symSize: 0x20 }
  - { offsetInCU: 0x17C55, offset: 0x17C55, size: 0x8, addend: 0x0, symName: __ZNSt3__16vectorI8timeEdgeNS_9allocatorIS1_EEE9__end_capB8ue170006Ev, symObjAddr: 0xB680, symBinAddr: 0x10000C680, symSize: 0x20 }
  - { offsetInCU: 0x17C81, offset: 0x17C81, size: 0x8, addend: 0x0, symName: __ZNSt3__16vectorI8timeEdgeNS_9allocatorIS1_EEE22__construct_one_at_endB8ue170006IJS1_EEEvDpOT_, symObjAddr: 0xB6A0, symBinAddr: 0x10000C6A0, symSize: 0x90 }
  - { offsetInCU: 0x17CD0, offset: 0x17CD0, size: 0x8, addend: 0x0, symName: __ZNSt3__16vectorI8timeEdgeNS_9allocatorIS1_EEE21__push_back_slow_pathIS1_EEvOT_, symObjAddr: 0xB730, symBinAddr: 0x10000C730, symSize: 0xD0 }
  - { offsetInCU: 0x17D2E, offset: 0x17D2E, size: 0x8, addend: 0x0, symName: __ZNSt3__117__compressed_pairIP8timeEdgeNS_9allocatorIS1_EEE5firstB8ue170006Ev, symObjAddr: 0xB800, symBinAddr: 0x10000C800, symSize: 0x20 }
  - { offsetInCU: 0x17D54, offset: 0x17D54, size: 0x8, addend: 0x0, symName: __ZNSt3__122__compressed_pair_elemIP8timeEdgeLi0ELb0EE5__getB8ue170006Ev, symObjAddr: 0xB820, symBinAddr: 0x10000C820, symSize: 0x10 }
  - { offsetInCU: 0x17D93, offset: 0x17D93, size: 0x8, addend: 0x0, symName: __ZNSt3__16vectorI8timeEdgeNS_9allocatorIS1_EEE21_ConstructTransactionC1B8ue170006ERS4_m, symObjAddr: 0xB830, symBinAddr: 0x10000C830, symSize: 0x30 }
  - { offsetInCU: 0x17DDB, offset: 0x17DDB, size: 0x8, addend: 0x0, symName: __ZNSt3__116allocator_traitsINS_9allocatorI8timeEdgeEEE9constructB8ue170006IS2_JS2_EvEEvRS3_PT_DpOT0_, symObjAddr: 0xB860, symBinAddr: 0x10000C860, symSize: 0x30 }
  - { offsetInCU: 0x17E32, offset: 0x17E32, size: 0x8, addend: 0x0, symName: __ZNSt3__16vectorI8timeEdgeNS_9allocatorIS1_EEE7__allocB8ue170006Ev, symObjAddr: 0xB890, symBinAddr: 0x10000C890, symSize: 0x20 }
  - { offsetInCU: 0x17E58, offset: 0x17E58, size: 0x8, addend: 0x0, symName: __ZNSt3__16vectorI8timeEdgeNS_9allocatorIS1_EEE21_ConstructTransactionD1B8ue170006Ev, symObjAddr: 0xB8C0, symBinAddr: 0x10000C8C0, symSize: 0x20 }
  - { offsetInCU: 0x17E82, offset: 0x17E82, size: 0x8, addend: 0x0, symName: __ZNSt3__16vectorI8timeEdgeNS_9allocatorIS1_EEE21_ConstructTransactionC2B8ue170006ERS4_m, symObjAddr: 0xB8E0, symBinAddr: 0x10000C8E0, symSize: 0x40 }
  - { offsetInCU: 0x17ECA, offset: 0x17ECA, size: 0x8, addend: 0x0, symName: __ZNSt3__19allocatorI8timeEdgeE9constructB8ue170006IS1_JS1_EEEvPT_DpOT0_, symObjAddr: 0xB920, symBinAddr: 0x10000C920, symSize: 0x30 }
  - { offsetInCU: 0x17F20, offset: 0x17F20, size: 0x8, addend: 0x0, symName: __ZNSt3__117__compressed_pairIP8timeEdgeNS_9allocatorIS1_EEE6secondB8ue170006Ev, symObjAddr: 0xB950, symBinAddr: 0x10000C950, symSize: 0x20 }
  - { offsetInCU: 0x17F46, offset: 0x17F46, size: 0x8, addend: 0x0, symName: __ZNSt3__122__compressed_pair_elemINS_9allocatorI8timeEdgeEELi1ELb1EE5__getB8ue170006Ev, symObjAddr: 0xB970, symBinAddr: 0x10000C970, symSize: 0x10 }
  - { offsetInCU: 0x17F6C, offset: 0x17F6C, size: 0x8, addend: 0x0, symName: __ZNSt3__16vectorI8timeEdgeNS_9allocatorIS1_EEE21_ConstructTransactionD2B8ue170006Ev, symObjAddr: 0xB980, symBinAddr: 0x10000C980, symSize: 0x20 }
  - { offsetInCU: 0x17F96, offset: 0x17F96, size: 0x8, addend: 0x0, symName: __ZNKSt3__16vectorI8timeEdgeNS_9allocatorIS1_EEE11__recommendB8ue170006Em, symObjAddr: 0xB9A0, symBinAddr: 0x10000C9A0, symSize: 0xA0 }
  - { offsetInCU: 0x17FEB, offset: 0x17FEB, size: 0x8, addend: 0x0, symName: __ZNSt3__114__split_bufferI8timeEdgeRNS_9allocatorIS1_EEEC1EmmS4_, symObjAddr: 0xBA40, symBinAddr: 0x10000CA40, symSize: 0x40 }
  - { offsetInCU: 0x18041, offset: 0x18041, size: 0x8, addend: 0x0, symName: __ZNSt3__114__split_bufferI8timeEdgeRNS_9allocatorIS1_EEED1Ev, symObjAddr: 0xBBA0, symBinAddr: 0x10000CBA0, symSize: 0x20 }
  - { offsetInCU: 0x1806D, offset: 0x1806D, size: 0x8, addend: 0x0, symName: __ZNKSt3__16vectorI8timeEdgeNS_9allocatorIS1_EEE8max_sizeEv, symObjAddr: 0xBBC0, symBinAddr: 0x10000CBC0, symSize: 0x60 }
  - { offsetInCU: 0x18095, offset: 0x18095, size: 0x8, addend: 0x0, symName: __ZNKSt3__16vectorI8timeEdgeNS_9allocatorIS1_EEE20__throw_length_errorB8ue170006Ev, symObjAddr: 0xBC20, symBinAddr: 0x10000CC20, symSize: 0x20 }
  - { offsetInCU: 0x180BB, offset: 0x180BB, size: 0x8, addend: 0x0, symName: __ZNKSt3__16vectorI8timeEdgeNS_9allocatorIS1_EEE8capacityB8ue170006Ev, symObjAddr: 0xBC40, symBinAddr: 0x10000CC40, symSize: 0x30 }
  - { offsetInCU: 0x180EB, offset: 0x180EB, size: 0x8, addend: 0x0, symName: __ZNSt3__116allocator_traitsINS_9allocatorI8timeEdgeEEE8max_sizeB8ue170006IS3_vEEmRKS3_, symObjAddr: 0xBC70, symBinAddr: 0x10000CC70, symSize: 0x20 }
  - { offsetInCU: 0x18119, offset: 0x18119, size: 0x8, addend: 0x0, symName: __ZNKSt3__16vectorI8timeEdgeNS_9allocatorIS1_EEE7__allocB8ue170006Ev, symObjAddr: 0xBC90, symBinAddr: 0x10000CC90, symSize: 0x20 }
  - { offsetInCU: 0x1813F, offset: 0x1813F, size: 0x8, addend: 0x0, symName: __ZNKSt3__19allocatorI8timeEdgeE8max_sizeB8ue170006Ev, symObjAddr: 0xBCB0, symBinAddr: 0x10000CCB0, symSize: 0x20 }
  - { offsetInCU: 0x18165, offset: 0x18165, size: 0x8, addend: 0x0, symName: __ZNKSt3__117__compressed_pairIP8timeEdgeNS_9allocatorIS1_EEE6secondB8ue170006Ev, symObjAddr: 0xBCD0, symBinAddr: 0x10000CCD0, symSize: 0x20 }
  - { offsetInCU: 0x1818B, offset: 0x1818B, size: 0x8, addend: 0x0, symName: __ZNKSt3__122__compressed_pair_elemINS_9allocatorI8timeEdgeEELi1ELb1EE5__getB8ue170006Ev, symObjAddr: 0xBCF0, symBinAddr: 0x10000CCF0, symSize: 0x10 }
  - { offsetInCU: 0x181B1, offset: 0x181B1, size: 0x8, addend: 0x0, symName: __ZNKSt3__16vectorI8timeEdgeNS_9allocatorIS1_EEE9__end_capB8ue170006Ev, symObjAddr: 0xBD00, symBinAddr: 0x10000CD00, symSize: 0x20 }
  - { offsetInCU: 0x181D7, offset: 0x181D7, size: 0x8, addend: 0x0, symName: __ZNKSt3__117__compressed_pairIP8timeEdgeNS_9allocatorIS1_EEE5firstB8ue170006Ev, symObjAddr: 0xBD20, symBinAddr: 0x10000CD20, symSize: 0x20 }
  - { offsetInCU: 0x181FD, offset: 0x181FD, size: 0x8, addend: 0x0, symName: __ZNKSt3__122__compressed_pair_elemIP8timeEdgeLi0ELb0EE5__getB8ue170006Ev, symObjAddr: 0xBD40, symBinAddr: 0x10000CD40, symSize: 0x10 }
  - { offsetInCU: 0x18223, offset: 0x18223, size: 0x8, addend: 0x0, symName: __ZNSt3__114__split_bufferI8timeEdgeRNS_9allocatorIS1_EEEC2EmmS4_, symObjAddr: 0xBD50, symBinAddr: 0x10000CD50, symSize: 0xD0 }
  - { offsetInCU: 0x18296, offset: 0x18296, size: 0x8, addend: 0x0, symName: __ZNSt3__117__compressed_pairIP8timeEdgeRNS_9allocatorIS1_EEEC1B8ue170006IDnS5_EEOT_OT0_, symObjAddr: 0xBE20, symBinAddr: 0x10000CE20, symSize: 0x30 }
  - { offsetInCU: 0x182EE, offset: 0x182EE, size: 0x8, addend: 0x0, symName: __ZNSt3__114__split_bufferI8timeEdgeRNS_9allocatorIS1_EEE7__allocB8ue170006Ev, symObjAddr: 0xBE90, symBinAddr: 0x10000CE90, symSize: 0x20 }
  - { offsetInCU: 0x18314, offset: 0x18314, size: 0x8, addend: 0x0, symName: __ZNSt3__114__split_bufferI8timeEdgeRNS_9allocatorIS1_EEE9__end_capB8ue170006Ev, symObjAddr: 0xBEB0, symBinAddr: 0x10000CEB0, symSize: 0x20 }
  - { offsetInCU: 0x1833A, offset: 0x1833A, size: 0x8, addend: 0x0, symName: __ZNSt3__117__compressed_pairIP8timeEdgeRNS_9allocatorIS1_EEEC2B8ue170006IDnS5_EEOT_OT0_, symObjAddr: 0xBED0, symBinAddr: 0x10000CED0, symSize: 0x40 }
  - { offsetInCU: 0x18392, offset: 0x18392, size: 0x8, addend: 0x0, symName: __ZNSt3__122__compressed_pair_elemIP8timeEdgeLi0ELb0EEC2B8ue170006IDnvEEOT_, symObjAddr: 0xBF10, symBinAddr: 0x10000CF10, symSize: 0x20 }
  - { offsetInCU: 0x183D4, offset: 0x183D4, size: 0x8, addend: 0x0, symName: __ZNSt3__122__compressed_pair_elemIRNS_9allocatorI8timeEdgeEELi1ELb0EEC2B8ue170006IS4_vEEOT_, symObjAddr: 0xBF30, symBinAddr: 0x10000CF30, symSize: 0x20 }
  - { offsetInCU: 0x18416, offset: 0x18416, size: 0x8, addend: 0x0, symName: __ZNSt3__19allocatorI8timeEdgeE8allocateB8ue170006Em, symObjAddr: 0xBF50, symBinAddr: 0x10000CF50, symSize: 0x50 }
  - { offsetInCU: 0x1844A, offset: 0x1844A, size: 0x8, addend: 0x0, symName: __ZNSt3__117__compressed_pairIP8timeEdgeRNS_9allocatorIS1_EEE6secondB8ue170006Ev, symObjAddr: 0xBFA0, symBinAddr: 0x10000CFA0, symSize: 0x20 }
  - { offsetInCU: 0x18470, offset: 0x18470, size: 0x8, addend: 0x0, symName: __ZNSt3__122__compressed_pair_elemIRNS_9allocatorI8timeEdgeEELi1ELb0EE5__getB8ue170006Ev, symObjAddr: 0xBFC0, symBinAddr: 0x10000CFC0, symSize: 0x20 }
  - { offsetInCU: 0x18496, offset: 0x18496, size: 0x8, addend: 0x0, symName: __ZNSt3__117__compressed_pairIP8timeEdgeRNS_9allocatorIS1_EEE5firstB8ue170006Ev, symObjAddr: 0xBFE0, symBinAddr: 0x10000CFE0, symSize: 0x20 }
  - { offsetInCU: 0x184BC, offset: 0x184BC, size: 0x8, addend: 0x0, symName: __ZNKSt3__16vectorI8timeEdgeNS_9allocatorIS1_EEE17__annotate_deleteB8ue170006Ev, symObjAddr: 0xC000, symBinAddr: 0x10000D000, symSize: 0xB0 }
  - { offsetInCU: 0x184E2, offset: 0x184E2, size: 0x8, addend: 0x0, symName: __ZNSt3__116reverse_iteratorIP8timeEdgeEC1B8ue170006ES2_, symObjAddr: 0xC120, symBinAddr: 0x10000D120, symSize: 0x30 }
  - { offsetInCU: 0x1851A, offset: 0x1851A, size: 0x8, addend: 0x0, symName: __ZNKSt3__116reverse_iteratorIP8timeEdgeE4baseB8ue170006Ev, symObjAddr: 0xC150, symBinAddr: 0x10000D150, symSize: 0x20 }
  - { offsetInCU: 0x18540, offset: 0x18540, size: 0x8, addend: 0x0, symName: __ZNKSt3__16vectorI8timeEdgeNS_9allocatorIS1_EEE14__annotate_newB8ue170006Em, symObjAddr: 0xC1B0, symBinAddr: 0x10000D1B0, symSize: 0xB0 }
  - { offsetInCU: 0x18575, offset: 0x18575, size: 0x8, addend: 0x0, symName: __ZNKSt3__16vectorI8timeEdgeNS_9allocatorIS1_EEE31__annotate_contiguous_containerB8ue170006EPKvS6_S6_S6_, symObjAddr: 0xC260, symBinAddr: 0x10000D260, symSize: 0x20 }
  - { offsetInCU: 0x185C7, offset: 0x185C7, size: 0x8, addend: 0x0, symName: __ZNKSt3__16vectorI8timeEdgeNS_9allocatorIS1_EEE4dataB8ue170006Ev, symObjAddr: 0xC280, symBinAddr: 0x10000D280, symSize: 0x20 }
  - { offsetInCU: 0x18607, offset: 0x18607, size: 0x8, addend: 0x0, symName: __ZNKSt3__111__move_loopINS_17_ClassicAlgPolicyEEclB8ue170006INS_16reverse_iteratorIP8timeEdgeEES7_S7_EENS_4pairIT_T1_EES9_T0_SA_, symObjAddr: 0xC6E0, symBinAddr: 0x10000D6E0, symSize: 0xB0 }
  - { offsetInCU: 0x18672, offset: 0x18672, size: 0x8, addend: 0x0, symName: __ZNSt3__18_IterOpsINS_17_ClassicAlgPolicyEE11__iter_moveB8ue170006IRNS_16reverse_iteratorIP8timeEdgeEEEENS_9enable_ifIXsr12is_referenceIDTdeclsr3stdE7declvalIRT_EEEEE5valueEDTclsr3stdE4movedeclsr3stdE7declvalISB_EEEEE4typeEOSA_, symObjAddr: 0xC910, symBinAddr: 0x10000D910, symSize: 0x20 }
  - { offsetInCU: 0x1869E, offset: 0x1869E, size: 0x8, addend: 0x0, symName: __ZNKSt3__116reverse_iteratorIP8timeEdgeEdeB8ue170006Ev, symObjAddr: 0xC930, symBinAddr: 0x10000D930, symSize: 0x30 }
  - { offsetInCU: 0x186D2, offset: 0x186D2, size: 0x8, addend: 0x0, symName: __ZNSt3__116reverse_iteratorIP8timeEdgeEppB8ue170006Ev, symObjAddr: 0xC960, symBinAddr: 0x10000D960, symSize: 0x20 }
  - { offsetInCU: 0x186F8, offset: 0x186F8, size: 0x8, addend: 0x0, symName: __ZNSt3__18_IterOpsINS_17_ClassicAlgPolicyEE25__validate_iter_referenceB8ue170006IRNS_16reverse_iteratorIP8timeEdgeEEEEvv, symObjAddr: 0xC980, symBinAddr: 0x10000D980, symSize: 0x10 }
  - { offsetInCU: 0x18716, offset: 0x18716, size: 0x8, addend: 0x0, symName: __ZNSt3__118__unwrap_iter_implINS_16reverse_iteratorIP8timeEdgeEELb0EE8__unwrapB8ue170006ES4_, symObjAddr: 0xC990, symBinAddr: 0x10000D990, symSize: 0x20 }
  - { offsetInCU: 0x1873F, offset: 0x1873F, size: 0x8, addend: 0x0, symName: __ZNSt3__14pairINS_16reverse_iteratorIP8timeEdgeEES4_EC1B8ue170006IS4_S4_LPv0EEEOT_OT0_, symObjAddr: 0xC9B0, symBinAddr: 0x10000D9B0, symSize: 0x30 }
  - { offsetInCU: 0x1879D, offset: 0x1879D, size: 0x8, addend: 0x0, symName: __ZNSt3__14pairINS_16reverse_iteratorIP8timeEdgeEES4_EC2B8ue170006IS4_S4_LPv0EEEOT_OT0_, symObjAddr: 0xC9E0, symBinAddr: 0x10000D9E0, symSize: 0x40 }
  - { offsetInCU: 0x187FB, offset: 0x187FB, size: 0x8, addend: 0x0, symName: __ZNSt3__118__unwrap_iter_implINS_16reverse_iteratorIP8timeEdgeEELb0EE8__rewrapB8ue170006ES4_S4_, symObjAddr: 0xCA20, symBinAddr: 0x10000DA20, symSize: 0x30 }
  - { offsetInCU: 0x18829, offset: 0x18829, size: 0x8, addend: 0x0, symName: __ZNSt3__116reverse_iteratorIP8timeEdgeEC2B8ue170006ES2_, symObjAddr: 0xCA50, symBinAddr: 0x10000DA50, symSize: 0x30 }
  - { offsetInCU: 0x18861, offset: 0x18861, size: 0x8, addend: 0x0, symName: __ZNSt3__114__split_bufferI8timeEdgeRNS_9allocatorIS1_EEED2Ev, symObjAddr: 0xCA80, symBinAddr: 0x10000DA80, symSize: 0x70 }
  - { offsetInCU: 0x1888D, offset: 0x1888D, size: 0x8, addend: 0x0, symName: __ZNSt3__114__split_bufferI8timeEdgeRNS_9allocatorIS1_EEE5clearB8ue170006Ev, symObjAddr: 0xCAF0, symBinAddr: 0x10000DAF0, symSize: 0x20 }
  - { offsetInCU: 0x188B3, offset: 0x188B3, size: 0x8, addend: 0x0, symName: __ZNSt3__116allocator_traitsINS_9allocatorI8timeEdgeEEE10deallocateB8ue170006ERS3_PS2_m, symObjAddr: 0xCB10, symBinAddr: 0x10000DB10, symSize: 0x30 }
  - { offsetInCU: 0x188F5, offset: 0x188F5, size: 0x8, addend: 0x0, symName: __ZNKSt3__114__split_bufferI8timeEdgeRNS_9allocatorIS1_EEE8capacityB8ue170006Ev, symObjAddr: 0xCB40, symBinAddr: 0x10000DB40, symSize: 0x30 }
  - { offsetInCU: 0x1891B, offset: 0x1891B, size: 0x8, addend: 0x0, symName: __ZNSt3__114__split_bufferI8timeEdgeRNS_9allocatorIS1_EEE17__destruct_at_endB8ue170006EPS1_, symObjAddr: 0xCB70, symBinAddr: 0x10000DB70, symSize: 0x30 }
  - { offsetInCU: 0x1894F, offset: 0x1894F, size: 0x8, addend: 0x0, symName: __ZNSt3__114__split_bufferI8timeEdgeRNS_9allocatorIS1_EEE17__destruct_at_endB8ue170006EPS1_NS_17integral_constantIbLb0EEE, symObjAddr: 0xCBA0, symBinAddr: 0x10000DBA0, symSize: 0x80 }
  - { offsetInCU: 0x18990, offset: 0x18990, size: 0x8, addend: 0x0, symName: __ZNSt3__116allocator_traitsINS_9allocatorI8timeEdgeEEE7destroyB8ue170006IS2_vEEvRS3_PT_, symObjAddr: 0xCC20, symBinAddr: 0x10000DC20, symSize: 0x30 }
  - { offsetInCU: 0x189CD, offset: 0x189CD, size: 0x8, addend: 0x0, symName: __ZNSt3__19allocatorI8timeEdgeE7destroyB8ue170006EPS1_, symObjAddr: 0xCC50, symBinAddr: 0x10000DC50, symSize: 0x10 }
  - { offsetInCU: 0x18A01, offset: 0x18A01, size: 0x8, addend: 0x0, symName: __ZNSt3__19allocatorI8timeEdgeE10deallocateB8ue170006EPS1_m, symObjAddr: 0xCC60, symBinAddr: 0x10000DC60, symSize: 0x40 }
  - { offsetInCU: 0x18A43, offset: 0x18A43, size: 0x8, addend: 0x0, symName: __ZNKSt3__114__split_bufferI8timeEdgeRNS_9allocatorIS1_EEE9__end_capB8ue170006Ev, symObjAddr: 0xCCA0, symBinAddr: 0x10000DCA0, symSize: 0x20 }
  - { offsetInCU: 0x18A69, offset: 0x18A69, size: 0x8, addend: 0x0, symName: __ZNKSt3__117__compressed_pairIP8timeEdgeRNS_9allocatorIS1_EEE5firstB8ue170006Ev, symObjAddr: 0xCCC0, symBinAddr: 0x10000DCC0, symSize: 0x20 }
  - { offsetInCU: 0x18A8F, offset: 0x18A8F, size: 0x8, addend: 0x0, symName: __ZNSt3__16vectorI8timeEdgeNS_9allocatorIS1_EEE11__make_iterB8ue170006EPS1_, symObjAddr: 0xCCE0, symBinAddr: 0x10000DCE0, symSize: 0x30 }
  - { offsetInCU: 0x18AC4, offset: 0x18AC4, size: 0x8, addend: 0x0, symName: __ZNSt3__111__wrap_iterIP8timeEdgeEC1B8ue170006ES2_, symObjAddr: 0xCD10, symBinAddr: 0x10000DD10, symSize: 0x30 }
  - { offsetInCU: 0x18AFC, offset: 0x18AFC, size: 0x8, addend: 0x0, symName: __ZNSt3__111__wrap_iterIP8timeEdgeEC2B8ue170006ES2_, symObjAddr: 0xCD40, symBinAddr: 0x10000DD40, symSize: 0x20 }
  - { offsetInCU: 0x18B62, offset: 0x18B62, size: 0x8, addend: 0x0, symName: __ZN12compare_edgeclERK8timeEdgeS2_, symObjAddr: 0xD310, symBinAddr: 0x10000E310, symSize: 0x30 }
  - { offsetInCU: 0x18BA4, offset: 0x18BA4, size: 0x8, addend: 0x0, symName: __ZNSt3__18_IterOpsINS_17_ClassicAlgPolicyEE9iter_swapB8ue170006IRP8timeEdgeS6_EEvOT_OT0_, symObjAddr: 0xD340, symBinAddr: 0x10000E340, symSize: 0x30 }
  - { offsetInCU: 0x18BED, offset: 0x18BED, size: 0x8, addend: 0x0, symName: __ZNSt3__18_IterOpsINS_17_ClassicAlgPolicyEE9iter_swapB8ue170006IRP8timeEdgeS5_EEvOT_OT0_, symObjAddr: 0xD870, symBinAddr: 0x10000E870, symSize: 0x30 }
  - { offsetInCU: 0x18C30, offset: 0x18C30, size: 0x8, addend: 0x0, symName: __ZNSt3__18_IterOpsINS_17_ClassicAlgPolicyEE11__iter_moveB8ue170006IRP8timeEdgeEENS_9enable_ifIXsr12is_referenceIDTdeclsr3stdE7declvalIRT_EEEEE5valueEDTclsr3stdE4movedeclsr3stdE7declvalIS9_EEEEE4typeEOS8_, symObjAddr: 0xE460, symBinAddr: 0x10000F460, symSize: 0x20 }
  - { offsetInCU: 0x18C5C, offset: 0x18C5C, size: 0x8, addend: 0x0, symName: __ZNSt3__18_IterOpsINS_17_ClassicAlgPolicyEE25__validate_iter_referenceB8ue170006IRP8timeEdgeEEvv, symObjAddr: 0xE480, symBinAddr: 0x10000F480, symSize: 0x10 }
  - { offsetInCU: 0x18C7A, offset: 0x18C7A, size: 0x8, addend: 0x0, symName: __ZNSt3__18_IterOpsINS_17_ClassicAlgPolicyEE4nextB8ue170006IP8timeEdgeEET_S6_S6_, symObjAddr: 0xE490, symBinAddr: 0x10000F490, symSize: 0x20 }
  - { offsetInCU: 0x18CB1, offset: 0x18CB1, size: 0x8, addend: 0x0, symName: __ZNSt3__18_IterOpsINS_17_ClassicAlgPolicyEE9iter_swapB8ue170006IP8timeEdgeS5_EEvOT_OT0_, symObjAddr: 0xF230, symBinAddr: 0x100010230, symSize: 0x30 }
  - { offsetInCU: 0x18D0E, offset: 0x18D0E, size: 0x8, addend: 0x0, symName: __ZNSt3__14pairIP8timeEdgebEC1B8ue170006IRS2_RbLPv0EEEOT_OT0_, symObjAddr: 0xF260, symBinAddr: 0x100010260, symSize: 0x30 }
  - { offsetInCU: 0x18D6C, offset: 0x18D6C, size: 0x8, addend: 0x0, symName: __ZNSt3__14pairIP8timeEdgebEC2B8ue170006IRS2_RbLPv0EEEOT_OT0_, symObjAddr: 0xF290, symBinAddr: 0x100010290, symSize: 0x30 }
  - { offsetInCU: 0x18DCA, offset: 0x18DCA, size: 0x8, addend: 0x0, symName: __ZNSt3__118__unwrap_iter_implINS_11__wrap_iterIP8timeEdgeEELb1EE8__unwrapB8ue170006ES4_, symObjAddr: 0xF2C0, symBinAddr: 0x1000102C0, symSize: 0x20 }
  - { offsetInCU: 0x18DF7, offset: 0x18DF7, size: 0x8, addend: 0x0, symName: __ZNSt3__119__to_address_helperINS_11__wrap_iterIP8timeEdgeEEvE6__callB8ue170006ERKS4_, symObjAddr: 0xF300, symBinAddr: 0x100010300, symSize: 0x30 }
  - { offsetInCU: 0x18E1A, offset: 0x18E1A, size: 0x8, addend: 0x0, symName: __ZNSt3__114pointer_traitsINS_11__wrap_iterIP8timeEdgeEEE10to_addressB8ue170006ES4_, symObjAddr: 0xF330, symBinAddr: 0x100010330, symSize: 0x30 }
  - { offsetInCU: 0x18E3D, offset: 0x18E3D, size: 0x8, addend: 0x0, symName: __ZNKSt3__111__wrap_iterIP8timeEdgeE4baseB8ue170006Ev, symObjAddr: 0xF360, symBinAddr: 0x100010360, symSize: 0x20 }
  - { offsetInCU: 0x18E63, offset: 0x18E63, size: 0x8, addend: 0x0, symName: __ZNSt3__16vectorI8timeEdgeNS_9allocatorIS1_EEEC2B8ue170006Ev, symObjAddr: 0xF380, symBinAddr: 0x100010380, symSize: 0x50 }
  - { offsetInCU: 0x18E8D, offset: 0x18E8D, size: 0x8, addend: 0x0, symName: __ZNSt3__117__compressed_pairIP8timeEdgeNS_9allocatorIS1_EEEC1B8ue170006IDnNS_18__default_init_tagEEEOT_OT0_, symObjAddr: 0xF3D0, symBinAddr: 0x1000103D0, symSize: 0x30 }
  - { offsetInCU: 0x18EE5, offset: 0x18EE5, size: 0x8, addend: 0x0, symName: __ZNSt3__117__compressed_pairIP8timeEdgeNS_9allocatorIS1_EEEC2B8ue170006IDnNS_18__default_init_tagEEEOT_OT0_, symObjAddr: 0xF400, symBinAddr: 0x100010400, symSize: 0x40 }
  - { offsetInCU: 0x18F3D, offset: 0x18F3D, size: 0x8, addend: 0x0, symName: __ZNSt3__122__compressed_pair_elemINS_9allocatorI8timeEdgeEELi1ELb1EEC2B8ue170006ENS_18__default_init_tagE, symObjAddr: 0xF440, symBinAddr: 0x100010440, symSize: 0x20 }
  - { offsetInCU: 0x18F72, offset: 0x18F72, size: 0x8, addend: 0x0, symName: __ZNSt3__19allocatorI8timeEdgeEC2B8ue170006Ev, symObjAddr: 0xF460, symBinAddr: 0x100010460, symSize: 0x20 }
  - { offsetInCU: 0x18F9C, offset: 0x18F9C, size: 0x8, addend: 0x0, symName: __ZNSt3__116__non_trivial_ifILb1ENS_9allocatorI8timeEdgeEEEC2B8ue170006Ev, symObjAddr: 0xF480, symBinAddr: 0x100010480, symSize: 0x10 }
  - { offsetInCU: 0x18FC6, offset: 0x18FC6, size: 0x8, addend: 0x0, symName: __ZNSt3__16vectorI8timeEdgeNS_9allocatorIS1_EEED2B8ue170006Ev, symObjAddr: 0xF490, symBinAddr: 0x100010490, symSize: 0x40 }
  - { offsetInCU: 0x18FF0, offset: 0x18FF0, size: 0x8, addend: 0x0, symName: __ZNSt3__16vectorI8timeEdgeNS_9allocatorIS1_EEE16__destroy_vectorC1B8ue170006ERS4_, symObjAddr: 0xF4D0, symBinAddr: 0x1000104D0, symSize: 0x30 }
  - { offsetInCU: 0x19029, offset: 0x19029, size: 0x8, addend: 0x0, symName: __ZNSt3__16vectorI8timeEdgeNS_9allocatorIS1_EEE16__destroy_vectorclB8ue170006Ev, symObjAddr: 0xF500, symBinAddr: 0x100010500, symSize: 0x80 }
  - { offsetInCU: 0x1904F, offset: 0x1904F, size: 0x8, addend: 0x0, symName: __ZNSt3__16vectorI8timeEdgeNS_9allocatorIS1_EEE16__destroy_vectorC2B8ue170006ERS4_, symObjAddr: 0xF580, symBinAddr: 0x100010580, symSize: 0x20 }
  - { offsetInCU: 0x19088, offset: 0x19088, size: 0x8, addend: 0x0, symName: __ZNSt3__16vectorI8timeEdgeNS_9allocatorIS1_EEE7__clearB8ue170006Ev, symObjAddr: 0xF5A0, symBinAddr: 0x1000105A0, symSize: 0x20 }
  - { offsetInCU: 0x190AE, offset: 0x190AE, size: 0x8, addend: 0x0, symName: __ZNSt3__16vectorI8timeEdgeNS_9allocatorIS1_EEE22__base_destruct_at_endB8ue170006EPS1_, symObjAddr: 0xF5C0, symBinAddr: 0x1000105C0, symSize: 0x80 }
  - { offsetInCU: 0x190F2, offset: 0x190F2, size: 0x8, addend: 0x0, symName: __ZNSt3__113basic_ostreamIcNS_11char_traitsIcEEEC2B8ue170006EPNS_15basic_streambufIcS2_EE, symObjAddr: 0xF640, symBinAddr: 0x100010640, symSize: 0x47 }
...
